
L4_Example_Project.elf:     file format elf32-littlearm

Sections:
Idx Name          Size      VMA       LMA       File off  Algn
  0 .isr_vector   00000194  08000000  08000000  00010000  2**0
                  CONTENTS, ALLOC, LOAD, READONLY, DATA
  1 .text         000034dc  08000194  08000194  00010194  2**2
                  CONTENTS, ALLOC, LOAD, READONLY, CODE
  2 .rodata       000002d4  08003670  08003670  00013670  2**2
                  CONTENTS, ALLOC, LOAD, READONLY, DATA
  3 .ARM          00000008  08003944  08003944  00013944  2**2
                  CONTENTS, ALLOC, LOAD, READONLY, DATA
  4 .init_array   00000004  0800394c  0800394c  0001394c  2**2
                  CONTENTS, ALLOC, LOAD, DATA
  5 .fini_array   00000004  08003950  08003950  00013950  2**2
                  CONTENTS, ALLOC, LOAD, DATA
  6 .data         00000040  20000000  08003954  00020000  2**2
                  CONTENTS, ALLOC, LOAD, DATA
  7 .ram2         00000000  10000000  10000000  00020040  2**0
                  CONTENTS
  8 .bss          000005c0  20000040  20000040  00020040  2**2
                  ALLOC
  9 ._user_heap_stack 00000400  20000600  20000600  00020040  2**0
                  ALLOC
 10 .ARM.attributes 00000030  00000000  00000000  00020040  2**0
                  CONTENTS, READONLY
 11 .debug_info   00023d93  00000000  00000000  00020070  2**0
                  CONTENTS, READONLY, DEBUGGING
 12 .debug_abbrev 00004e26  00000000  00000000  00043e03  2**0
                  CONTENTS, READONLY, DEBUGGING
 13 .debug_aranges 000010e8  00000000  00000000  00048c30  2**3
                  CONTENTS, READONLY, DEBUGGING
 14 .debug_ranges 00000f98  00000000  00000000  00049d18  2**3
                  CONTENTS, READONLY, DEBUGGING
 15 .debug_line   0000abfa  00000000  00000000  0004acb0  2**0
                  CONTENTS, READONLY, DEBUGGING
 16 .debug_str    00005bdd  00000000  00000000  000558aa  2**0
                  CONTENTS, READONLY, DEBUGGING
 17 .comment      0000007c  00000000  00000000  0005b487  2**0
                  CONTENTS, READONLY
 18 .debug_frame  0000285c  00000000  00000000  0005b504  2**2
                  CONTENTS, READONLY, DEBUGGING
 19 .debug_loc    0000897d  00000000  00000000  0005dd60  2**0
                  CONTENTS, READONLY, DEBUGGING

Disassembly of section .text:

08000194 <__do_global_dtors_aux>:
 8000194:	b510      	push	{r4, lr}
 8000196:	4c05      	ldr	r4, [pc, #20]	; (80001ac <__do_global_dtors_aux+0x18>)
 8000198:	7823      	ldrb	r3, [r4, #0]
 800019a:	b933      	cbnz	r3, 80001aa <__do_global_dtors_aux+0x16>
 800019c:	4b04      	ldr	r3, [pc, #16]	; (80001b0 <__do_global_dtors_aux+0x1c>)
 800019e:	b113      	cbz	r3, 80001a6 <__do_global_dtors_aux+0x12>
 80001a0:	4804      	ldr	r0, [pc, #16]	; (80001b4 <__do_global_dtors_aux+0x20>)
 80001a2:	f3af 8000 	nop.w
 80001a6:	2301      	movs	r3, #1
 80001a8:	7023      	strb	r3, [r4, #0]
 80001aa:	bd10      	pop	{r4, pc}
 80001ac:	20000040 	.word	0x20000040
 80001b0:	00000000 	.word	0x00000000
 80001b4:	08003658 	.word	0x08003658

080001b8 <frame_dummy>:
 80001b8:	b508      	push	{r3, lr}
 80001ba:	4b03      	ldr	r3, [pc, #12]	; (80001c8 <frame_dummy+0x10>)
 80001bc:	b11b      	cbz	r3, 80001c6 <frame_dummy+0xe>
 80001be:	4903      	ldr	r1, [pc, #12]	; (80001cc <frame_dummy+0x14>)
 80001c0:	4803      	ldr	r0, [pc, #12]	; (80001d0 <frame_dummy+0x18>)
 80001c2:	f3af 8000 	nop.w
 80001c6:	bd08      	pop	{r3, pc}
 80001c8:	00000000 	.word	0x00000000
 80001cc:	20000044 	.word	0x20000044
 80001d0:	08003658 	.word	0x08003658

080001d4 <__aeabi_uldivmod>:
 80001d4:	b953      	cbnz	r3, 80001ec <__aeabi_uldivmod+0x18>
 80001d6:	b94a      	cbnz	r2, 80001ec <__aeabi_uldivmod+0x18>
 80001d8:	2900      	cmp	r1, #0
 80001da:	bf08      	it	eq
 80001dc:	2800      	cmpeq	r0, #0
 80001de:	bf1c      	itt	ne
 80001e0:	f04f 31ff 	movne.w	r1, #4294967295
 80001e4:	f04f 30ff 	movne.w	r0, #4294967295
 80001e8:	f000 b97a 	b.w	80004e0 <__aeabi_idiv0>
 80001ec:	f1ad 0c08 	sub.w	ip, sp, #8
 80001f0:	e96d ce04 	strd	ip, lr, [sp, #-16]!
 80001f4:	f000 f806 	bl	8000204 <__udivmoddi4>
 80001f8:	f8dd e004 	ldr.w	lr, [sp, #4]
 80001fc:	e9dd 2302 	ldrd	r2, r3, [sp, #8]
 8000200:	b004      	add	sp, #16
 8000202:	4770      	bx	lr

08000204 <__udivmoddi4>:
 8000204:	e92d 47f0 	stmdb	sp!, {r4, r5, r6, r7, r8, r9, sl, lr}
 8000208:	468c      	mov	ip, r1
 800020a:	460d      	mov	r5, r1
 800020c:	4604      	mov	r4, r0
 800020e:	9e08      	ldr	r6, [sp, #32]
 8000210:	2b00      	cmp	r3, #0
 8000212:	d151      	bne.n	80002b8 <__udivmoddi4+0xb4>
 8000214:	428a      	cmp	r2, r1
 8000216:	4617      	mov	r7, r2
 8000218:	d96d      	bls.n	80002f6 <__udivmoddi4+0xf2>
 800021a:	fab2 fe82 	clz	lr, r2
 800021e:	f1be 0f00 	cmp.w	lr, #0
 8000222:	d00b      	beq.n	800023c <__udivmoddi4+0x38>
 8000224:	f1ce 0c20 	rsb	ip, lr, #32
 8000228:	fa01 f50e 	lsl.w	r5, r1, lr
 800022c:	fa20 fc0c 	lsr.w	ip, r0, ip
 8000230:	fa02 f70e 	lsl.w	r7, r2, lr
 8000234:	ea4c 0c05 	orr.w	ip, ip, r5
 8000238:	fa00 f40e 	lsl.w	r4, r0, lr
 800023c:	ea4f 4a17 	mov.w	sl, r7, lsr #16
 8000240:	0c25      	lsrs	r5, r4, #16
 8000242:	fbbc f8fa 	udiv	r8, ip, sl
 8000246:	fa1f f987 	uxth.w	r9, r7
 800024a:	fb0a cc18 	mls	ip, sl, r8, ip
 800024e:	ea45 450c 	orr.w	r5, r5, ip, lsl #16
 8000252:	fb08 f309 	mul.w	r3, r8, r9
 8000256:	42ab      	cmp	r3, r5
 8000258:	d90a      	bls.n	8000270 <__udivmoddi4+0x6c>
 800025a:	19ed      	adds	r5, r5, r7
 800025c:	f108 32ff 	add.w	r2, r8, #4294967295
 8000260:	f080 8123 	bcs.w	80004aa <__udivmoddi4+0x2a6>
 8000264:	42ab      	cmp	r3, r5
 8000266:	f240 8120 	bls.w	80004aa <__udivmoddi4+0x2a6>
 800026a:	f1a8 0802 	sub.w	r8, r8, #2
 800026e:	443d      	add	r5, r7
 8000270:	1aed      	subs	r5, r5, r3
 8000272:	b2a4      	uxth	r4, r4
 8000274:	fbb5 f0fa 	udiv	r0, r5, sl
 8000278:	fb0a 5510 	mls	r5, sl, r0, r5
 800027c:	ea44 4405 	orr.w	r4, r4, r5, lsl #16
 8000280:	fb00 f909 	mul.w	r9, r0, r9
 8000284:	45a1      	cmp	r9, r4
 8000286:	d909      	bls.n	800029c <__udivmoddi4+0x98>
 8000288:	19e4      	adds	r4, r4, r7
 800028a:	f100 33ff 	add.w	r3, r0, #4294967295
 800028e:	f080 810a 	bcs.w	80004a6 <__udivmoddi4+0x2a2>
 8000292:	45a1      	cmp	r9, r4
 8000294:	f240 8107 	bls.w	80004a6 <__udivmoddi4+0x2a2>
 8000298:	3802      	subs	r0, #2
 800029a:	443c      	add	r4, r7
 800029c:	eba4 0409 	sub.w	r4, r4, r9
 80002a0:	ea40 4008 	orr.w	r0, r0, r8, lsl #16
 80002a4:	2100      	movs	r1, #0
 80002a6:	2e00      	cmp	r6, #0
 80002a8:	d061      	beq.n	800036e <__udivmoddi4+0x16a>
 80002aa:	fa24 f40e 	lsr.w	r4, r4, lr
 80002ae:	2300      	movs	r3, #0
 80002b0:	6034      	str	r4, [r6, #0]
 80002b2:	6073      	str	r3, [r6, #4]
 80002b4:	e8bd 87f0 	ldmia.w	sp!, {r4, r5, r6, r7, r8, r9, sl, pc}
 80002b8:	428b      	cmp	r3, r1
 80002ba:	d907      	bls.n	80002cc <__udivmoddi4+0xc8>
 80002bc:	2e00      	cmp	r6, #0
 80002be:	d054      	beq.n	800036a <__udivmoddi4+0x166>
 80002c0:	2100      	movs	r1, #0
 80002c2:	e886 0021 	stmia.w	r6, {r0, r5}
 80002c6:	4608      	mov	r0, r1
 80002c8:	e8bd 87f0 	ldmia.w	sp!, {r4, r5, r6, r7, r8, r9, sl, pc}
 80002cc:	fab3 f183 	clz	r1, r3
 80002d0:	2900      	cmp	r1, #0
 80002d2:	f040 808e 	bne.w	80003f2 <__udivmoddi4+0x1ee>
 80002d6:	42ab      	cmp	r3, r5
 80002d8:	d302      	bcc.n	80002e0 <__udivmoddi4+0xdc>
 80002da:	4282      	cmp	r2, r0
 80002dc:	f200 80fa 	bhi.w	80004d4 <__udivmoddi4+0x2d0>
 80002e0:	1a84      	subs	r4, r0, r2
 80002e2:	eb65 0503 	sbc.w	r5, r5, r3
 80002e6:	2001      	movs	r0, #1
 80002e8:	46ac      	mov	ip, r5
 80002ea:	2e00      	cmp	r6, #0
 80002ec:	d03f      	beq.n	800036e <__udivmoddi4+0x16a>
 80002ee:	e886 1010 	stmia.w	r6, {r4, ip}
 80002f2:	e8bd 87f0 	ldmia.w	sp!, {r4, r5, r6, r7, r8, r9, sl, pc}
 80002f6:	b912      	cbnz	r2, 80002fe <__udivmoddi4+0xfa>
 80002f8:	2701      	movs	r7, #1
 80002fa:	fbb7 f7f2 	udiv	r7, r7, r2
 80002fe:	fab7 fe87 	clz	lr, r7
 8000302:	f1be 0f00 	cmp.w	lr, #0
 8000306:	d134      	bne.n	8000372 <__udivmoddi4+0x16e>
 8000308:	1beb      	subs	r3, r5, r7
 800030a:	0c3a      	lsrs	r2, r7, #16
 800030c:	fa1f fc87 	uxth.w	ip, r7
 8000310:	2101      	movs	r1, #1
 8000312:	fbb3 f8f2 	udiv	r8, r3, r2
 8000316:	0c25      	lsrs	r5, r4, #16
 8000318:	fb02 3318 	mls	r3, r2, r8, r3
 800031c:	ea45 4503 	orr.w	r5, r5, r3, lsl #16
 8000320:	fb0c f308 	mul.w	r3, ip, r8
 8000324:	42ab      	cmp	r3, r5
 8000326:	d907      	bls.n	8000338 <__udivmoddi4+0x134>
 8000328:	19ed      	adds	r5, r5, r7
 800032a:	f108 30ff 	add.w	r0, r8, #4294967295
 800032e:	d202      	bcs.n	8000336 <__udivmoddi4+0x132>
 8000330:	42ab      	cmp	r3, r5
 8000332:	f200 80d1 	bhi.w	80004d8 <__udivmoddi4+0x2d4>
 8000336:	4680      	mov	r8, r0
 8000338:	1aed      	subs	r5, r5, r3
 800033a:	b2a3      	uxth	r3, r4
 800033c:	fbb5 f0f2 	udiv	r0, r5, r2
 8000340:	fb02 5510 	mls	r5, r2, r0, r5
 8000344:	ea43 4405 	orr.w	r4, r3, r5, lsl #16
 8000348:	fb0c fc00 	mul.w	ip, ip, r0
 800034c:	45a4      	cmp	ip, r4
 800034e:	d907      	bls.n	8000360 <__udivmoddi4+0x15c>
 8000350:	19e4      	adds	r4, r4, r7
 8000352:	f100 33ff 	add.w	r3, r0, #4294967295
 8000356:	d202      	bcs.n	800035e <__udivmoddi4+0x15a>
 8000358:	45a4      	cmp	ip, r4
 800035a:	f200 80b8 	bhi.w	80004ce <__udivmoddi4+0x2ca>
 800035e:	4618      	mov	r0, r3
 8000360:	eba4 040c 	sub.w	r4, r4, ip
 8000364:	ea40 4008 	orr.w	r0, r0, r8, lsl #16
 8000368:	e79d      	b.n	80002a6 <__udivmoddi4+0xa2>
 800036a:	4631      	mov	r1, r6
 800036c:	4630      	mov	r0, r6
 800036e:	e8bd 87f0 	ldmia.w	sp!, {r4, r5, r6, r7, r8, r9, sl, pc}
 8000372:	f1ce 0420 	rsb	r4, lr, #32
 8000376:	fa05 f30e 	lsl.w	r3, r5, lr
 800037a:	fa07 f70e 	lsl.w	r7, r7, lr
 800037e:	fa20 f804 	lsr.w	r8, r0, r4
 8000382:	0c3a      	lsrs	r2, r7, #16
 8000384:	fa25 f404 	lsr.w	r4, r5, r4
 8000388:	ea48 0803 	orr.w	r8, r8, r3
 800038c:	fbb4 f1f2 	udiv	r1, r4, r2
 8000390:	ea4f 4518 	mov.w	r5, r8, lsr #16
 8000394:	fb02 4411 	mls	r4, r2, r1, r4
 8000398:	fa1f fc87 	uxth.w	ip, r7
 800039c:	ea45 4504 	orr.w	r5, r5, r4, lsl #16
 80003a0:	fb01 f30c 	mul.w	r3, r1, ip
 80003a4:	42ab      	cmp	r3, r5
 80003a6:	fa00 f40e 	lsl.w	r4, r0, lr
 80003aa:	d909      	bls.n	80003c0 <__udivmoddi4+0x1bc>
 80003ac:	19ed      	adds	r5, r5, r7
 80003ae:	f101 30ff 	add.w	r0, r1, #4294967295
 80003b2:	f080 808a 	bcs.w	80004ca <__udivmoddi4+0x2c6>
 80003b6:	42ab      	cmp	r3, r5
 80003b8:	f240 8087 	bls.w	80004ca <__udivmoddi4+0x2c6>
 80003bc:	3902      	subs	r1, #2
 80003be:	443d      	add	r5, r7
 80003c0:	1aeb      	subs	r3, r5, r3
 80003c2:	fa1f f588 	uxth.w	r5, r8
 80003c6:	fbb3 f0f2 	udiv	r0, r3, r2
 80003ca:	fb02 3310 	mls	r3, r2, r0, r3
 80003ce:	ea45 4503 	orr.w	r5, r5, r3, lsl #16
 80003d2:	fb00 f30c 	mul.w	r3, r0, ip
 80003d6:	42ab      	cmp	r3, r5
 80003d8:	d907      	bls.n	80003ea <__udivmoddi4+0x1e6>
 80003da:	19ed      	adds	r5, r5, r7
 80003dc:	f100 38ff 	add.w	r8, r0, #4294967295
 80003e0:	d26f      	bcs.n	80004c2 <__udivmoddi4+0x2be>
 80003e2:	42ab      	cmp	r3, r5
 80003e4:	d96d      	bls.n	80004c2 <__udivmoddi4+0x2be>
 80003e6:	3802      	subs	r0, #2
 80003e8:	443d      	add	r5, r7
 80003ea:	1aeb      	subs	r3, r5, r3
 80003ec:	ea40 4101 	orr.w	r1, r0, r1, lsl #16
 80003f0:	e78f      	b.n	8000312 <__udivmoddi4+0x10e>
 80003f2:	f1c1 0720 	rsb	r7, r1, #32
 80003f6:	fa22 f807 	lsr.w	r8, r2, r7
 80003fa:	408b      	lsls	r3, r1
 80003fc:	fa05 f401 	lsl.w	r4, r5, r1
 8000400:	ea48 0303 	orr.w	r3, r8, r3
 8000404:	fa20 fe07 	lsr.w	lr, r0, r7
 8000408:	ea4f 4c13 	mov.w	ip, r3, lsr #16
 800040c:	40fd      	lsrs	r5, r7
 800040e:	ea4e 0e04 	orr.w	lr, lr, r4
 8000412:	fbb5 f9fc 	udiv	r9, r5, ip
 8000416:	ea4f 441e 	mov.w	r4, lr, lsr #16
 800041a:	fb0c 5519 	mls	r5, ip, r9, r5
 800041e:	fa1f f883 	uxth.w	r8, r3
 8000422:	ea44 4505 	orr.w	r5, r4, r5, lsl #16
 8000426:	fb09 f408 	mul.w	r4, r9, r8
 800042a:	42ac      	cmp	r4, r5
 800042c:	fa02 f201 	lsl.w	r2, r2, r1
 8000430:	fa00 fa01 	lsl.w	sl, r0, r1
 8000434:	d908      	bls.n	8000448 <__udivmoddi4+0x244>
 8000436:	18ed      	adds	r5, r5, r3
 8000438:	f109 30ff 	add.w	r0, r9, #4294967295
 800043c:	d243      	bcs.n	80004c6 <__udivmoddi4+0x2c2>
 800043e:	42ac      	cmp	r4, r5
 8000440:	d941      	bls.n	80004c6 <__udivmoddi4+0x2c2>
 8000442:	f1a9 0902 	sub.w	r9, r9, #2
 8000446:	441d      	add	r5, r3
 8000448:	1b2d      	subs	r5, r5, r4
 800044a:	fa1f fe8e 	uxth.w	lr, lr
 800044e:	fbb5 f0fc 	udiv	r0, r5, ip
 8000452:	fb0c 5510 	mls	r5, ip, r0, r5
 8000456:	ea4e 4405 	orr.w	r4, lr, r5, lsl #16
 800045a:	fb00 f808 	mul.w	r8, r0, r8
 800045e:	45a0      	cmp	r8, r4
 8000460:	d907      	bls.n	8000472 <__udivmoddi4+0x26e>
 8000462:	18e4      	adds	r4, r4, r3
 8000464:	f100 35ff 	add.w	r5, r0, #4294967295
 8000468:	d229      	bcs.n	80004be <__udivmoddi4+0x2ba>
 800046a:	45a0      	cmp	r8, r4
 800046c:	d927      	bls.n	80004be <__udivmoddi4+0x2ba>
 800046e:	3802      	subs	r0, #2
 8000470:	441c      	add	r4, r3
 8000472:	ea40 4009 	orr.w	r0, r0, r9, lsl #16
 8000476:	eba4 0408 	sub.w	r4, r4, r8
 800047a:	fba0 8902 	umull	r8, r9, r0, r2
 800047e:	454c      	cmp	r4, r9
 8000480:	46c6      	mov	lr, r8
 8000482:	464d      	mov	r5, r9
 8000484:	d315      	bcc.n	80004b2 <__udivmoddi4+0x2ae>
 8000486:	d012      	beq.n	80004ae <__udivmoddi4+0x2aa>
 8000488:	b156      	cbz	r6, 80004a0 <__udivmoddi4+0x29c>
 800048a:	ebba 030e 	subs.w	r3, sl, lr
 800048e:	eb64 0405 	sbc.w	r4, r4, r5
 8000492:	fa04 f707 	lsl.w	r7, r4, r7
 8000496:	40cb      	lsrs	r3, r1
 8000498:	431f      	orrs	r7, r3
 800049a:	40cc      	lsrs	r4, r1
 800049c:	6037      	str	r7, [r6, #0]
 800049e:	6074      	str	r4, [r6, #4]
 80004a0:	2100      	movs	r1, #0
 80004a2:	e8bd 87f0 	ldmia.w	sp!, {r4, r5, r6, r7, r8, r9, sl, pc}
 80004a6:	4618      	mov	r0, r3
 80004a8:	e6f8      	b.n	800029c <__udivmoddi4+0x98>
 80004aa:	4690      	mov	r8, r2
 80004ac:	e6e0      	b.n	8000270 <__udivmoddi4+0x6c>
 80004ae:	45c2      	cmp	sl, r8
 80004b0:	d2ea      	bcs.n	8000488 <__udivmoddi4+0x284>
 80004b2:	ebb8 0e02 	subs.w	lr, r8, r2
 80004b6:	eb69 0503 	sbc.w	r5, r9, r3
 80004ba:	3801      	subs	r0, #1
 80004bc:	e7e4      	b.n	8000488 <__udivmoddi4+0x284>
 80004be:	4628      	mov	r0, r5
 80004c0:	e7d7      	b.n	8000472 <__udivmoddi4+0x26e>
 80004c2:	4640      	mov	r0, r8
 80004c4:	e791      	b.n	80003ea <__udivmoddi4+0x1e6>
 80004c6:	4681      	mov	r9, r0
 80004c8:	e7be      	b.n	8000448 <__udivmoddi4+0x244>
 80004ca:	4601      	mov	r1, r0
 80004cc:	e778      	b.n	80003c0 <__udivmoddi4+0x1bc>
 80004ce:	3802      	subs	r0, #2
 80004d0:	443c      	add	r4, r7
 80004d2:	e745      	b.n	8000360 <__udivmoddi4+0x15c>
 80004d4:	4608      	mov	r0, r1
 80004d6:	e708      	b.n	80002ea <__udivmoddi4+0xe6>
 80004d8:	f1a8 0802 	sub.w	r8, r8, #2
 80004dc:	443d      	add	r5, r7
 80004de:	e72b      	b.n	8000338 <__udivmoddi4+0x134>

080004e0 <__aeabi_idiv0>:
 80004e0:	4770      	bx	lr
 80004e2:	bf00      	nop

080004e4 <main>:
 *
 * @details Initializes applications.
 * @details Call system application to execute active applications.
 ****************************************************************************/
int  main()
{
 80004e4:	b508      	push	{r3, lr}
	/* Call to initial specific platform configuration */
    systemPreConfiguration();
 80004e6:	f000 fdd2 	bl	800108e <systemPreConfiguration>

    /* HAL TEST */
    GPIOInit();
 80004ea:	f000 fc37 	bl	8000d5c <GPIOInit>
    stm32L4Init();
 80004ee:	f000 fdbb 	bl	8001068 <stm32L4Init>

    interruptsInit();
 80004f2:	f000 fc5d 	bl	8000db0 <interruptsInit>
    interruptsStart();
 80004f6:	f000 fc73 	bl	8000de0 <interruptsStart>
    spiInit();
 80004fa:	f000 fea9 	bl	8001250 <spiInit>
    spiStart();
 80004fe:	f000 feef 	bl	80012e0 <spiStart>

    uartInit();
 8000502:	f000 fff3 	bl	80014ec <uartInit>
    uartStart();
 8000506:	f001 f82b 	bl	8001560 <uartStart>

    FlashInit();
 800050a:	f000 fb2b 	bl	8000b64 <FlashInit>
    SwTimerInit();
 800050e:	f000 fa91 	bl	8000a34 <SwTimerInit>
    /*\ HAL TEST */


	/* Applications Initialization */
    SchedulerInit();
 8000512:	f000 f939 	bl	8000788 <SchedulerInit>

    while (TRUE)
    {
        SchedulerNextSystemProcess();
 8000516:	f000 f9e5 	bl	80008e4 <SchedulerNextSystemProcess>
 800051a:	e7fc      	b.n	8000516 <main+0x32>

0800051c <initSystemApp>:
 *
 * @details Initializes HREG and SREG layers.
 * @details Initializes all applications
 ****************************************************************************/
void initSystemApp( void )
{
 800051c:	b508      	push	{r3, lr}
    requestPowerState = POWER_STATE_NO_REQUEST;
 800051e:	2200      	movs	r2, #0
 8000520:	4b02      	ldr	r3, [pc, #8]	; (800052c <initSystemApp+0x10>)
 8000522:	701a      	strb	r2, [r3, #0]

    initSregAll();    /* Initialise the SREG layer */
 8000524:	f000 f8bc 	bl	80006a0 <initSregAll>
 8000528:	bd08      	pop	{r3, pc}
 800052a:	bf00      	nop
 800052c:	20000074 	.word	0x20000074

08000530 <callSystemApp>:
 *
 * @details depending on current state, executes active applications.
 * @details calls system middleware task
 ****************************************************************************/
void callSystemApp( void )
{
 8000530:	b508      	push	{r3, lr}
    uint8_t systemState;

    /* HAL TEST */
    // GPIO
    GPIOWritePort(GPIO_LED_1, GPIO_TOGGLE);
 8000532:	2102      	movs	r1, #2
 8000534:	2006      	movs	r0, #6
 8000536:	f000 fb6d 	bl	8000c14 <GPIOWritePort>

    /* END HAL TEST */

    /* System state machine */
    systemState = READ_SREG(SREG_SYSTEM_STATE);
 800053a:	2004      	movs	r0, #4
 800053c:	f000 f8cf 	bl	80006de <readSreg>
 8000540:	b2c1      	uxtb	r1, r0
    //systemState = SYSTEM_APP_INIT_SHELL;
    switch ( systemState )
 8000542:	2904      	cmp	r1, #4
 8000544:	d82e      	bhi.n	80005a4 <callSystemApp+0x74>
 8000546:	e8df f001 	tbb	[pc, r1]
 800054a:	032c      	.short	0x032c
 800054c:	2d0e      	.short	0x2d0e
 800054e:	05          	.byte	0x05
 800054f:	00          	.byte	0x00
			break;
        
		case SYSTEM_APP_INIT:
			/* Application init dispather */
			
			systemState = SYSTEM_APP_ON;
 8000550:	2102      	movs	r1, #2
            break;
 8000552:	e027      	b.n	80005a4 <callSystemApp+0x74>

        case SYSTEM_APP_SLEPT:
			/* Application sleep dispather */

			/* Power Sequence control */
            if ( requestPowerState == POWER_STATE_WAKE_UP ) 
 8000554:	4b15      	ldr	r3, [pc, #84]	; (80005ac <callSystemApp+0x7c>)
 8000556:	781b      	ldrb	r3, [r3, #0]
 8000558:	2b02      	cmp	r3, #2
 800055a:	d123      	bne.n	80005a4 <callSystemApp+0x74>
            {
				/* Wake up */
                systemState = SYSTEM_APP_ON;
                requestPowerState = POWER_STATE_NO_REQUEST;
 800055c:	2100      	movs	r1, #0
 800055e:	4a13      	ldr	r2, [pc, #76]	; (80005ac <callSystemApp+0x7c>)
 8000560:	7011      	strb	r1, [r2, #0]
                systemState = SYSTEM_APP_ON;
 8000562:	4619      	mov	r1, r3
 8000564:	e01e      	b.n	80005a4 <callSystemApp+0x74>

        case SYSTEM_APP_ON:
			/* Application dispatcher */

			/* Power Sequence control */
            if ( requestPowerState == POWER_STATE_START_SHUTDOWN )
 8000566:	4b11      	ldr	r3, [pc, #68]	; (80005ac <callSystemApp+0x7c>)
 8000568:	781b      	ldrb	r3, [r3, #0]
 800056a:	2b01      	cmp	r3, #1
 800056c:	d007      	beq.n	800057e <callSystemApp+0x4e>
                WRITE_SREG(SREG_SYSTEM_MW_NOTIF, NOTIF_SYSTEM_MW_POWER_OFF);
                
                /* Power off */
                systemState = SYSTEM_APP_POWER_OFF;
            }
            else if ( requestPowerState == POWER_STATE_GO_TO_SLEEP )
 800056e:	2b03      	cmp	r3, #3
 8000570:	d00b      	beq.n	800058a <callSystemApp+0x5a>
                WRITE_SREG(SREG_SYSTEM_MW_NOTIF, NOTIF_SYSTEM_MW_SLEEP);
                
                /* Slept */
                systemState = SYSTEM_APP_SLEPT;
            }
            else if ( requestPowerState == POWER_STATE_REBOOT )
 8000572:	2b04      	cmp	r3, #4
 8000574:	d00f      	beq.n	8000596 <callSystemApp+0x66>
                systemState = SYSTEM_APP_REBOOT;
				WRITE_SREG(SREG_SYSTEM_MW_NOTIF, NOTIF_SYSTEM_MW_RESET);
            }
            
            /* Reset power state request */
            requestPowerState = POWER_STATE_NO_REQUEST;
 8000576:	2200      	movs	r2, #0
 8000578:	4b0c      	ldr	r3, [pc, #48]	; (80005ac <callSystemApp+0x7c>)
 800057a:	701a      	strb	r2, [r3, #0]
            break;
 800057c:	e012      	b.n	80005a4 <callSystemApp+0x74>
                WRITE_SREG(SREG_SYSTEM_MW_NOTIF, NOTIF_SYSTEM_MW_POWER_OFF);
 800057e:	210a      	movs	r1, #10
 8000580:	2005      	movs	r0, #5
 8000582:	f000 f8c7 	bl	8000714 <writeSreg>
                systemState = SYSTEM_APP_POWER_OFF;
 8000586:	2103      	movs	r1, #3
 8000588:	e7f5      	b.n	8000576 <callSystemApp+0x46>
                WRITE_SREG(SREG_SYSTEM_MW_NOTIF, NOTIF_SYSTEM_MW_SLEEP);
 800058a:	2101      	movs	r1, #1
 800058c:	2005      	movs	r0, #5
 800058e:	f000 f8c1 	bl	8000714 <writeSreg>
                systemState = SYSTEM_APP_SLEPT;
 8000592:	2104      	movs	r1, #4
 8000594:	e7ef      	b.n	8000576 <callSystemApp+0x46>
				WRITE_SREG(SREG_SYSTEM_MW_NOTIF, NOTIF_SYSTEM_MW_RESET);
 8000596:	2103      	movs	r1, #3
 8000598:	2005      	movs	r0, #5
 800059a:	f000 f8bb 	bl	8000714 <writeSreg>
                systemState = SYSTEM_APP_REBOOT;
 800059e:	2105      	movs	r1, #5
 80005a0:	e7e9      	b.n	8000576 <callSystemApp+0x46>
			systemState = SYSTEM_APP_INIT;
 80005a2:	2101      	movs	r1, #1
			break;
        
    }
    
    /* Update system state */
    WRITE_SREG(SREG_SYSTEM_STATE, systemState);
 80005a4:	2004      	movs	r0, #4
 80005a6:	f000 f8b5 	bl	8000714 <writeSreg>
 80005aa:	bd08      	pop	{r3, pc}
 80005ac:	20000074 	.word	0x20000074

080005b0 <sregWrite>:
eError sregWrite(SREG sreg, uint32_t value)
{
	eError success = RET_OK;
	uint8_t index;

	index = SREGInstanceMap[sreg].indexSREGType;
 80005b0:	4b0d      	ldr	r3, [pc, #52]	; (80005e8 <sregWrite+0x38>)
 80005b2:	eb03 0280 	add.w	r2, r3, r0, lsl #2
 80005b6:	7852      	ldrb	r2, [r2, #1]
	switch(SREGInstanceMap[sreg].type)
 80005b8:	f813 3020 	ldrb.w	r3, [r3, r0, lsl #2]
 80005bc:	2b01      	cmp	r3, #1
 80005be:	d008      	beq.n	80005d2 <sregWrite+0x22>
 80005c0:	b11b      	cbz	r3, 80005ca <sregWrite+0x1a>
 80005c2:	2b02      	cmp	r3, #2
 80005c4:	d00a      	beq.n	80005dc <sregWrite+0x2c>
			break;
		case SREG_UINT32:
			SREG32Context[index] = (uint32_t)value;
			break;
		default:
			success = RET_INVALID_PARAMETER;
 80005c6:	2005      	movs	r0, #5
			break;
	}

	return success;
}
 80005c8:	4770      	bx	lr
			SREG8Context[index] = (uint8_t)value;
 80005ca:	4b08      	ldr	r3, [pc, #32]	; (80005ec <sregWrite+0x3c>)
 80005cc:	5499      	strb	r1, [r3, r2]
	eError success = RET_OK;
 80005ce:	2000      	movs	r0, #0
			break;
 80005d0:	4770      	bx	lr
			SREG16Context[index] = (uint16_t)value;
 80005d2:	4b07      	ldr	r3, [pc, #28]	; (80005f0 <sregWrite+0x40>)
 80005d4:	f823 1012 	strh.w	r1, [r3, r2, lsl #1]
	eError success = RET_OK;
 80005d8:	2000      	movs	r0, #0
			break;
 80005da:	4770      	bx	lr
			SREG32Context[index] = (uint32_t)value;
 80005dc:	4b05      	ldr	r3, [pc, #20]	; (80005f4 <sregWrite+0x44>)
 80005de:	f843 1022 	str.w	r1, [r3, r2, lsl #2]
	eError success = RET_OK;
 80005e2:	2000      	movs	r0, #0
			break;
 80005e4:	4770      	bx	lr
 80005e6:	bf00      	nop
 80005e8:	080036a0 	.word	0x080036a0
 80005ec:	20000078 	.word	0x20000078
 80005f0:	20000088 	.word	0x20000088
 80005f4:	20000080 	.word	0x20000080

080005f8 <sregReadParam>:
 * @param	sreg
 * @param	sregParam struct
 * @return  RET_OK or RET_FAIL
 ****************************************************************************/
eError sregReadParam(SREG sreg, tSREGParam *sregParam)
{
 80005f8:	b430      	push	{r4, r5}
	eError success = RET_OK;
	uint8_t index;

	index = SREGInstanceMap[sreg].indexSREGType;
 80005fa:	4a22      	ldr	r2, [pc, #136]	; (8000684 <sregReadParam+0x8c>)
 80005fc:	eb02 0380 	add.w	r3, r2, r0, lsl #2
 8000600:	785b      	ldrb	r3, [r3, #1]
	switch(SREGInstanceMap[sreg].type)
 8000602:	f812 2020 	ldrb.w	r2, [r2, r0, lsl #2]
 8000606:	2a01      	cmp	r2, #1
 8000608:	d014      	beq.n	8000634 <sregReadParam+0x3c>
 800060a:	b11a      	cbz	r2, 8000614 <sregReadParam+0x1c>
 800060c:	2a02      	cmp	r2, #2
 800060e:	d025      	beq.n	800065c <sregReadParam+0x64>
			sregParam->Init  = (uint32_t)(SREG32InstanceMap[index].Init);
			sregParam->Max   = (uint32_t)(SREG32InstanceMap[index].Max);
			sregParam->Min   = (uint32_t)(SREG32InstanceMap[index].Min);
			break;
		default:
			success = RET_INVALID_PARAMETER;
 8000610:	2005      	movs	r0, #5
 8000612:	e00d      	b.n	8000630 <sregReadParam+0x38>
			sregParam->Data = (uint32_t)SREG8Context[index];
 8000614:	4a1c      	ldr	r2, [pc, #112]	; (8000688 <sregReadParam+0x90>)
 8000616:	5cd2      	ldrb	r2, [r2, r3]
 8000618:	600a      	str	r2, [r1, #0]
			sregParam->Init = (uint32_t)(SREG8InstanceMap[index].Init);
 800061a:	481c      	ldr	r0, [pc, #112]	; (800068c <sregReadParam+0x94>)
 800061c:	eb03 0343 	add.w	r3, r3, r3, lsl #1
 8000620:	18c2      	adds	r2, r0, r3
 8000622:	7894      	ldrb	r4, [r2, #2]
 8000624:	60cc      	str	r4, [r1, #12]
			sregParam->Max  = (uint32_t)(SREG8InstanceMap[index].Max);
 8000626:	5cc3      	ldrb	r3, [r0, r3]
 8000628:	604b      	str	r3, [r1, #4]
			sregParam->Min  = (uint32_t)(SREG8InstanceMap[index].Min);
 800062a:	7853      	ldrb	r3, [r2, #1]
 800062c:	608b      	str	r3, [r1, #8]
	eError success = RET_OK;
 800062e:	2000      	movs	r0, #0
			break;
	}

	return success;
}
 8000630:	bc30      	pop	{r4, r5}
 8000632:	4770      	bx	lr
			sregParam->Data  = (uint32_t)SREG16Context[index];
 8000634:	4a16      	ldr	r2, [pc, #88]	; (8000690 <sregReadParam+0x98>)
 8000636:	f832 2013 	ldrh.w	r2, [r2, r3, lsl #1]
 800063a:	600a      	str	r2, [r1, #0]
			sregParam->Init  = (uint32_t)(SREG16InstanceMap[index].Init);
 800063c:	4a15      	ldr	r2, [pc, #84]	; (8000694 <sregReadParam+0x9c>)
 800063e:	0058      	lsls	r0, r3, #1
 8000640:	18c5      	adds	r5, r0, r3
 8000642:	006c      	lsls	r4, r5, #1
 8000644:	1915      	adds	r5, r2, r4
 8000646:	88ad      	ldrh	r5, [r5, #4]
 8000648:	60cd      	str	r5, [r1, #12]
			sregParam->Max   = (uint32_t)(SREG16InstanceMap[index].Max);
 800064a:	5b14      	ldrh	r4, [r2, r4]
 800064c:	604c      	str	r4, [r1, #4]
			sregParam->Min   = (uint32_t)(SREG16InstanceMap[index].Min);
 800064e:	4403      	add	r3, r0
 8000650:	0058      	lsls	r0, r3, #1
 8000652:	4402      	add	r2, r0
 8000654:	8853      	ldrh	r3, [r2, #2]
 8000656:	608b      	str	r3, [r1, #8]
	eError success = RET_OK;
 8000658:	2000      	movs	r0, #0
			break;
 800065a:	e7e9      	b.n	8000630 <sregReadParam+0x38>
			sregParam->Data  = (uint32_t)SREG32Context[index];
 800065c:	4a0e      	ldr	r2, [pc, #56]	; (8000698 <sregReadParam+0xa0>)
 800065e:	f852 2023 	ldr.w	r2, [r2, r3, lsl #2]
 8000662:	600a      	str	r2, [r1, #0]
			sregParam->Init  = (uint32_t)(SREG32InstanceMap[index].Init);
 8000664:	4a0d      	ldr	r2, [pc, #52]	; (800069c <sregReadParam+0xa4>)
 8000666:	0058      	lsls	r0, r3, #1
 8000668:	18c5      	adds	r5, r0, r3
 800066a:	00ac      	lsls	r4, r5, #2
 800066c:	1915      	adds	r5, r2, r4
 800066e:	68ad      	ldr	r5, [r5, #8]
 8000670:	60cd      	str	r5, [r1, #12]
			sregParam->Max   = (uint32_t)(SREG32InstanceMap[index].Max);
 8000672:	5914      	ldr	r4, [r2, r4]
 8000674:	604c      	str	r4, [r1, #4]
			sregParam->Min   = (uint32_t)(SREG32InstanceMap[index].Min);
 8000676:	4403      	add	r3, r0
 8000678:	0098      	lsls	r0, r3, #2
 800067a:	4402      	add	r2, r0
 800067c:	6853      	ldr	r3, [r2, #4]
 800067e:	608b      	str	r3, [r1, #8]
	eError success = RET_OK;
 8000680:	2000      	movs	r0, #0
			break;
 8000682:	e7d5      	b.n	8000630 <sregReadParam+0x38>
 8000684:	080036a0 	.word	0x080036a0
 8000688:	20000078 	.word	0x20000078
 800068c:	08003688 	.word	0x08003688
 8000690:	20000088 	.word	0x20000088
 8000694:	08003670 	.word	0x08003670
 8000698:	20000080 	.word	0x20000080
 800069c:	08003670 	.word	0x08003670

080006a0 <initSregAll>:
{
 80006a0:	b510      	push	{r4, lr}
 80006a2:	b084      	sub	sp, #16
    for ( sreg = 0; sreg < NUM_OF_SREGS; sreg++ )
 80006a4:	2400      	movs	r4, #0
 80006a6:	e009      	b.n	80006bc <initSregAll+0x1c>
		sregReadParam(sreg, &sregParam);
 80006a8:	4669      	mov	r1, sp
 80006aa:	4620      	mov	r0, r4
 80006ac:	f7ff ffa4 	bl	80005f8 <sregReadParam>
		sregWrite(sreg, sregParam.Init);
 80006b0:	9903      	ldr	r1, [sp, #12]
 80006b2:	4620      	mov	r0, r4
 80006b4:	f7ff ff7c 	bl	80005b0 <sregWrite>
    for ( sreg = 0; sreg < NUM_OF_SREGS; sreg++ )
 80006b8:	3401      	adds	r4, #1
 80006ba:	b2e4      	uxtb	r4, r4
 80006bc:	2c08      	cmp	r4, #8
 80006be:	d9f3      	bls.n	80006a8 <initSregAll+0x8>
}
 80006c0:	b004      	add	sp, #16
 80006c2:	bd10      	pop	{r4, pc}

080006c4 <readSregTableStd>:
{
 80006c4:	b500      	push	{lr}
 80006c6:	b085      	sub	sp, #20
	success = sregReadParam(sreg, &sregParam);
 80006c8:	4669      	mov	r1, sp
 80006ca:	f7ff ff95 	bl	80005f8 <sregReadParam>
	if ( success == RET_OK )
 80006ce:	b120      	cbz	r0, 80006da <readSregTableStd+0x16>
    uint32_t ret_data = 0xffffffff;
 80006d0:	f04f 30ff 	mov.w	r0, #4294967295
}
 80006d4:	b005      	add	sp, #20
 80006d6:	f85d fb04 	ldr.w	pc, [sp], #4
		ret_data = sregParam.Data;
 80006da:	9800      	ldr	r0, [sp, #0]
 80006dc:	e7fa      	b.n	80006d4 <readSregTableStd+0x10>

080006de <readSreg>:
{
 80006de:	b508      	push	{r3, lr}
	return readSregTableStd(sreg);
 80006e0:	f7ff fff0 	bl	80006c4 <readSregTableStd>
}
 80006e4:	bd08      	pop	{r3, pc}

080006e6 <writeSregTableStd>:
{
 80006e6:	b570      	push	{r4, r5, r6, lr}
 80006e8:	b084      	sub	sp, #16
 80006ea:	4606      	mov	r6, r0
 80006ec:	460d      	mov	r5, r1
	result = sregReadParam(sreg, &sregParam);
 80006ee:	4669      	mov	r1, sp
 80006f0:	f7ff ff82 	bl	80005f8 <sregReadParam>
 80006f4:	4604      	mov	r4, r0
	if ( value > sregParam.Max )
 80006f6:	9901      	ldr	r1, [sp, #4]
 80006f8:	42a9      	cmp	r1, r5
 80006fa:	d303      	bcc.n	8000704 <writeSregTableStd+0x1e>
	else if ( value < sregParam.Min )
 80006fc:	9902      	ldr	r1, [sp, #8]
 80006fe:	428d      	cmp	r5, r1
 8000700:	d300      	bcc.n	8000704 <writeSregTableStd+0x1e>
 8000702:	4629      	mov	r1, r5
	if ( result == RET_OK )
 8000704:	b114      	cbz	r4, 800070c <writeSregTableStd+0x26>
}
 8000706:	4620      	mov	r0, r4
 8000708:	b004      	add	sp, #16
 800070a:	bd70      	pop	{r4, r5, r6, pc}
		sregWrite(sreg, value);
 800070c:	4630      	mov	r0, r6
 800070e:	f7ff ff4f 	bl	80005b0 <sregWrite>
 8000712:	e7f8      	b.n	8000706 <writeSregTableStd+0x20>

08000714 <writeSreg>:
{
 8000714:	b508      	push	{r3, lr}
	return writeSregTableStd( sreg, value );
 8000716:	f7ff ffe6 	bl	80006e6 <writeSregTableStd>
}
 800071a:	bd08      	pop	{r3, pc}

0800071c <SchedulerResetProcessTable>:
 ****************************************************************************/
void SchedulerResetProcessTable(void)
{
	uint8_t i;

	ptrTask	= 0;
 800071c:	2300      	movs	r3, #0
 800071e:	4a16      	ldr	r2, [pc, #88]	; (8000778 <SchedulerResetProcessTable+0x5c>)
 8000720:	7013      	strb	r3, [r2, #0]

 	for (i = 0; i < NUM_OF_SCHED_TASKS; i++)
 8000722:	2b01      	cmp	r3, #1
 8000724:	d826      	bhi.n	8000774 <SchedulerResetProcessTable+0x58>
{
 8000726:	b430      	push	{r4, r5}
 	{
		schedulerProcess[i].uiTimeProcessCounter	= 0;
 8000728:	4914      	ldr	r1, [pc, #80]	; (800077c <SchedulerResetProcessTable+0x60>)
 800072a:	f831 2013 	ldrh.w	r2, [r1, r3, lsl #1]
 800072e:	f36f 020d 	bfc	r2, #0, #14
 8000732:	f821 2013 	strh.w	r2, [r1, r3, lsl #1]
		schedulerProcess[i].bEnabledSystemTask	= SchedulerInstanceMap[i].initState;
 8000736:	005a      	lsls	r2, r3, #1
 8000738:	18d0      	adds	r0, r2, r3
 800073a:	0084      	lsls	r4, r0, #2
 800073c:	4810      	ldr	r0, [pc, #64]	; (8000780 <SchedulerResetProcessTable+0x64>)
 800073e:	4420      	add	r0, r4
 8000740:	7a84      	ldrb	r4, [r0, #10]
 8000742:	4411      	add	r1, r2
 8000744:	7848      	ldrb	r0, [r1, #1]
 8000746:	f364 1086 	bfi	r0, r4, #6, #1
		schedulerProcess[i].bEnabledUrgentSystemTask = FALSE;
 800074a:	f36f 10c7 	bfc	r0, #7, #1
 800074e:	7048      	strb	r0, [r1, #1]

		schedulerContext[i].maxDelayProcessCtn = 0;
 8000750:	490c      	ldr	r1, [pc, #48]	; (8000784 <SchedulerResetProcessTable+0x68>)
 8000752:	18d0      	adds	r0, r2, r3
 8000754:	00c5      	lsls	r5, r0, #3
 8000756:	194c      	adds	r4, r1, r5
 8000758:	2000      	movs	r0, #0
 800075a:	81a0      	strh	r0, [r4, #12]
		schedulerContext[i].maximumTaskTime_us = 0;
 800075c:	60a0      	str	r0, [r4, #8]
		schedulerContext[i].averageTaskTime_us = 0;
 800075e:	5148      	str	r0, [r1, r5]
		schedulerContext[i].currentTaskTime_us = 0;
 8000760:	6060      	str	r0, [r4, #4]
		schedulerContext[i].cntTaskTime = 0;
 8000762:	6120      	str	r0, [r4, #16]
		schedulerContext[i].userEnabled = TRUE;
 8000764:	2201      	movs	r2, #1
 8000766:	7562      	strb	r2, [r4, #21]
 	for (i = 0; i < NUM_OF_SCHED_TASKS; i++)
 8000768:	4413      	add	r3, r2
 800076a:	b2db      	uxtb	r3, r3
 800076c:	2b01      	cmp	r3, #1
 800076e:	d9db      	bls.n	8000728 <SchedulerResetProcessTable+0xc>
 	}
}
 8000770:	bc30      	pop	{r4, r5}
 8000772:	4770      	bx	lr
 8000774:	4770      	bx	lr
 8000776:	bf00      	nop
 8000778:	200000bc 	.word	0x200000bc
 800077c:	200000c0 	.word	0x200000c0
 8000780:	080036c4 	.word	0x080036c4
 8000784:	2000008c 	.word	0x2000008c

08000788 <SchedulerInit>:
{
 8000788:	b510      	push	{r4, lr}
	SchedulerResetProcessTable();
 800078a:	f7ff ffc7 	bl	800071c <SchedulerResetProcessTable>
 	for (i = 0; i < NUM_OF_SCHED_TASKS; i++)
 800078e:	2400      	movs	r4, #0
 8000790:	e001      	b.n	8000796 <SchedulerInit+0xe>
 8000792:	3401      	adds	r4, #1
 8000794:	b2e4      	uxtb	r4, r4
 8000796:	2c01      	cmp	r4, #1
 8000798:	d808      	bhi.n	80007ac <SchedulerInit+0x24>
		if(SchedulerInstanceMap[i].InitProcess != NULL)
 800079a:	eb04 0244 	add.w	r2, r4, r4, lsl #1
 800079e:	0093      	lsls	r3, r2, #2
 80007a0:	4a08      	ldr	r2, [pc, #32]	; (80007c4 <SchedulerInit+0x3c>)
 80007a2:	58d3      	ldr	r3, [r2, r3]
 80007a4:	2b00      	cmp	r3, #0
 80007a6:	d0f4      	beq.n	8000792 <SchedulerInit+0xa>
			(*(SchedulerInstanceMap[i].InitProcess))();
 80007a8:	4798      	blx	r3
 80007aa:	e7f2      	b.n	8000792 <SchedulerInit+0xa>
    systemGetCLkFreq(&ticks_per_us);
 80007ac:	4c06      	ldr	r4, [pc, #24]	; (80007c8 <SchedulerInit+0x40>)
 80007ae:	4620      	mov	r0, r4
 80007b0:	f000 fc66 	bl	8001080 <systemGetCLkFreq>
    ticks_per_us /= 1000000;
 80007b4:	6823      	ldr	r3, [r4, #0]
 80007b6:	4a05      	ldr	r2, [pc, #20]	; (80007cc <SchedulerInit+0x44>)
 80007b8:	fba2 2303 	umull	r2, r3, r2, r3
 80007bc:	0c9b      	lsrs	r3, r3, #18
 80007be:	6023      	str	r3, [r4, #0]
 80007c0:	bd10      	pop	{r4, pc}
 80007c2:	bf00      	nop
 80007c4:	080036c4 	.word	0x080036c4
 80007c8:	20000088 	.word	0x20000088
 80007cc:	431bde83 	.word	0x431bde83

080007d0 <SchedulerProcessesAutoEnable>:
 ****************************************************************************/
void SchedulerProcessesAutoEnable(void)
{
	uint8_t i;

	for (i = 0; i < NUM_OF_SCHED_TASKS; i++)
 80007d0:	2300      	movs	r3, #0
 80007d2:	2b01      	cmp	r3, #1
 80007d4:	d825      	bhi.n	8000822 <SchedulerProcessesAutoEnable+0x52>
{
 80007d6:	b430      	push	{r4, r5}
 80007d8:	e003      	b.n	80007e2 <SchedulerProcessesAutoEnable+0x12>
	for (i = 0; i < NUM_OF_SCHED_TASKS; i++)
 80007da:	3301      	adds	r3, #1
 80007dc:	b2db      	uxtb	r3, r3
 80007de:	2b01      	cmp	r3, #1
 80007e0:	d81d      	bhi.n	800081e <SchedulerProcessesAutoEnable+0x4e>
	{
		schedulerProcess[i].uiTimeProcessCounter++;
 80007e2:	4810      	ldr	r0, [pc, #64]	; (8000824 <SchedulerProcessesAutoEnable+0x54>)
 80007e4:	f830 2013 	ldrh.w	r2, [r0, r3, lsl #1]
 80007e8:	f3c2 010d 	ubfx	r1, r2, #0, #14
 80007ec:	3101      	adds	r1, #1
 80007ee:	f361 020d 	bfi	r2, r1, #0, #14
 80007f2:	f820 2013 	strh.w	r2, [r0, r3, lsl #1]

		// If currentTaskTime it's enable, update 1000uS=1mS
		if (schedulerContext[i].taskActive == TRUE && schedulerContext[i].userEnabled == TRUE )
 80007f6:	eb03 0243 	add.w	r2, r3, r3, lsl #1
 80007fa:	00d1      	lsls	r1, r2, #3
 80007fc:	4a0a      	ldr	r2, [pc, #40]	; (8000828 <SchedulerProcessesAutoEnable+0x58>)
 80007fe:	440a      	add	r2, r1
 8000800:	7d12      	ldrb	r2, [r2, #20]
 8000802:	2a00      	cmp	r2, #0
 8000804:	d0e9      	beq.n	80007da <SchedulerProcessesAutoEnable+0xa>
 8000806:	4a08      	ldr	r2, [pc, #32]	; (8000828 <SchedulerProcessesAutoEnable+0x58>)
 8000808:	440a      	add	r2, r1
 800080a:	7d52      	ldrb	r2, [r2, #21]
 800080c:	2a00      	cmp	r2, #0
 800080e:	d0e4      	beq.n	80007da <SchedulerProcessesAutoEnable+0xa>
		{
			schedulerContext[i].currentTaskTime_us += 1000;
 8000810:	4805      	ldr	r0, [pc, #20]	; (8000828 <SchedulerProcessesAutoEnable+0x58>)
 8000812:	4401      	add	r1, r0
 8000814:	684a      	ldr	r2, [r1, #4]
 8000816:	f502 727a 	add.w	r2, r2, #1000	; 0x3e8
 800081a:	604a      	str	r2, [r1, #4]
 800081c:	e7dd      	b.n	80007da <SchedulerProcessesAutoEnable+0xa>
		}
	}
}
 800081e:	bc30      	pop	{r4, r5}
 8000820:	4770      	bx	lr
 8000822:	4770      	bx	lr
 8000824:	200000c0 	.word	0x200000c0
 8000828:	2000008c 	.word	0x2000008c

0800082c <SchedulerUpdateTaskTime>:
 * @brief  	Update average task time, maximum task time
 * @param   process, initTime, finalTime
 * @return  none
 ****************************************************************************/
void SchedulerUpdateTaskTime(int32_t initTimeTaskScheduler, int32_t finalTimeTaskScheduler)
{
 800082c:	b4f0      	push	{r4, r5, r6, r7}
	uint64_t averageTaskTemp;
	schedulerContext[ptrTask].currentTaskTime_us += ((initTimeTaskScheduler - finalTimeTaskScheduler)/(int32_t)(ticks_per_us));
 800082e:	4b11      	ldr	r3, [pc, #68]	; (8000874 <SchedulerUpdateTaskTime+0x48>)
 8000830:	781a      	ldrb	r2, [r3, #0]
 8000832:	1a41      	subs	r1, r0, r1
 8000834:	4b10      	ldr	r3, [pc, #64]	; (8000878 <SchedulerUpdateTaskTime+0x4c>)
 8000836:	6818      	ldr	r0, [r3, #0]
 8000838:	fb91 f1f0 	sdiv	r1, r1, r0
 800083c:	4e0f      	ldr	r6, [pc, #60]	; (800087c <SchedulerUpdateTaskTime+0x50>)
 800083e:	0053      	lsls	r3, r2, #1
 8000840:	4413      	add	r3, r2
 8000842:	00dd      	lsls	r5, r3, #3
 8000844:	1974      	adds	r4, r6, r5
 8000846:	6863      	ldr	r3, [r4, #4]
 8000848:	4419      	add	r1, r3
 800084a:	6061      	str	r1, [r4, #4]
	schedulerContext[ptrTask].cntTaskTime %= MAX_TASK_TIME_CNT;
 800084c:	6923      	ldr	r3, [r4, #16]
 800084e:	f1b3 3fff 	cmp.w	r3, #4294967295
 8000852:	bf28      	it	cs
 8000854:	3301      	addcs	r3, #1
	schedulerContext[ptrTask].cntTaskTime++;
 8000856:	1c58      	adds	r0, r3, #1
 8000858:	6120      	str	r0, [r4, #16]

	/* Calculate the average task time */
	averageTaskTemp = (uint64_t)(schedulerContext[ptrTask].averageTaskTime_us*(schedulerContext[ptrTask].cntTaskTime-1));
 800085a:	5977      	ldr	r7, [r6, r5]
	schedulerContext[ptrTask].averageTaskTime_us = (uint32_t)(averageTaskTemp + schedulerContext[ptrTask].currentTaskTime_us) / schedulerContext[ptrTask].cntTaskTime;
 800085c:	fb07 1303 	mla	r3, r7, r3, r1
 8000860:	fbb3 f3f0 	udiv	r3, r3, r0
 8000864:	5173      	str	r3, [r6, r5]

    /* If current Task Time is higher than maximum, update maximum task time */
    if ( schedulerContext[ptrTask].currentTaskTime_us > schedulerContext[ptrTask].maximumTaskTime_us )
 8000866:	68a3      	ldr	r3, [r4, #8]
 8000868:	4299      	cmp	r1, r3
 800086a:	d900      	bls.n	800086e <SchedulerUpdateTaskTime+0x42>
    {
    	schedulerContext[ptrTask].maximumTaskTime_us = schedulerContext[ptrTask].currentTaskTime_us;
 800086c:	60a1      	str	r1, [r4, #8]
    }

}
 800086e:	bcf0      	pop	{r4, r5, r6, r7}
 8000870:	4770      	bx	lr
 8000872:	bf00      	nop
 8000874:	200000bc 	.word	0x200000bc
 8000878:	20000088 	.word	0x20000088
 800087c:	2000008c 	.word	0x2000008c

08000880 <SchedulerExecuteSystemProcess>:
{
 8000880:	e92d 41f0 	stmdb	sp!, {r4, r5, r6, r7, r8, lr}
	schedulerContext[ptrTask].currentTaskTime_us = 0;
 8000884:	f8df 8058 	ldr.w	r8, [pc, #88]	; 80008e0 <SchedulerExecuteSystemProcess+0x60>
 8000888:	f898 1000 	ldrb.w	r1, [r8]
 800088c:	4c11      	ldr	r4, [pc, #68]	; (80008d4 <SchedulerExecuteSystemProcess+0x54>)
 800088e:	004b      	lsls	r3, r1, #1
 8000890:	1858      	adds	r0, r3, r1
 8000892:	00c2      	lsls	r2, r0, #3
 8000894:	4422      	add	r2, r4
 8000896:	2700      	movs	r7, #0
 8000898:	6057      	str	r7, [r2, #4]
	initTimeTaskScheduler =  SYSTEM_TICK;
 800089a:	4e0f      	ldr	r6, [pc, #60]	; (80008d8 <SchedulerExecuteSystemProcess+0x58>)
 800089c:	68b5      	ldr	r5, [r6, #8]
	schedulerContext[ptrTask].taskActive = TRUE;
 800089e:	2001      	movs	r0, #1
 80008a0:	7510      	strb	r0, [r2, #20]
    (*(SchedulerInstanceMap[ptrTask].CallProcess))();
 80008a2:	440b      	add	r3, r1
 80008a4:	009a      	lsls	r2, r3, #2
 80008a6:	4b0d      	ldr	r3, [pc, #52]	; (80008dc <SchedulerExecuteSystemProcess+0x5c>)
 80008a8:	4413      	add	r3, r2
 80008aa:	685b      	ldr	r3, [r3, #4]
 80008ac:	4798      	blx	r3
	schedulerContext[ptrTask].taskActive = FALSE;
 80008ae:	f898 0000 	ldrb.w	r0, [r8]
 80008b2:	0043      	lsls	r3, r0, #1
 80008b4:	1819      	adds	r1, r3, r0
 80008b6:	00ca      	lsls	r2, r1, #3
 80008b8:	4422      	add	r2, r4
 80008ba:	7517      	strb	r7, [r2, #20]
    finalTimeTaskScheduler = SYSTEM_TICK;
 80008bc:	68b1      	ldr	r1, [r6, #8]
    if ( schedulerContext[ptrTask].userEnabled == TRUE )
 80008be:	4403      	add	r3, r0
 80008c0:	00da      	lsls	r2, r3, #3
 80008c2:	4414      	add	r4, r2
 80008c4:	7d63      	ldrb	r3, [r4, #21]
 80008c6:	b90b      	cbnz	r3, 80008cc <SchedulerExecuteSystemProcess+0x4c>
 80008c8:	e8bd 81f0 	ldmia.w	sp!, {r4, r5, r6, r7, r8, pc}
    	SchedulerUpdateTaskTime(initTimeTaskScheduler, finalTimeTaskScheduler);
 80008cc:	4628      	mov	r0, r5
 80008ce:	f7ff ffad 	bl	800082c <SchedulerUpdateTaskTime>
}
 80008d2:	e7f9      	b.n	80008c8 <SchedulerExecuteSystemProcess+0x48>
 80008d4:	2000008c 	.word	0x2000008c
 80008d8:	e000e010 	.word	0xe000e010
 80008dc:	080036c4 	.word	0x080036c4
 80008e0:	200000bc 	.word	0x200000bc

080008e4 <SchedulerNextSystemProcess>:
{
 80008e4:	b570      	push	{r4, r5, r6, lr}
    uint8_t i			= 0;
 80008e6:	2400      	movs	r4, #0
    bool taskExecuted	= FALSE;
 80008e8:	4620      	mov	r0, r4
 80008ea:	e027      	b.n	800093c <SchedulerNextSystemProcess+0x58>
			if ( schedulerProcess[ptrTask].bEnabledUrgentSystemTask == TRUE )
 80008ec:	2a00      	cmp	r2, #0
 80008ee:	d148      	bne.n	8000982 <SchedulerNextSystemProcess+0x9e>
				schedulerProcess[ptrTask].uiTimeProcessCounter = 0;
 80008f0:	4a28      	ldr	r2, [pc, #160]	; (8000994 <SchedulerNextSystemProcess+0xb0>)
 80008f2:	f832 1013 	ldrh.w	r1, [r2, r3, lsl #1]
 80008f6:	f36f 010d 	bfc	r1, #0, #14
 80008fa:	f822 1013 	strh.w	r1, [r2, r3, lsl #1]
			if (schedulerContext[ptrTask].maxDelayProcessCtn < (schedulerProcess[ptrTask].uiTimeProcessCounter - SchedulerInstanceMap[ptrTask].uiTimeProcess))
 80008fe:	005a      	lsls	r2, r3, #1
 8000900:	18d1      	adds	r1, r2, r3
 8000902:	00c8      	lsls	r0, r1, #3
 8000904:	4924      	ldr	r1, [pc, #144]	; (8000998 <SchedulerNextSystemProcess+0xb4>)
 8000906:	4401      	add	r1, r0
 8000908:	898d      	ldrh	r5, [r1, #12]
 800090a:	4922      	ldr	r1, [pc, #136]	; (8000994 <SchedulerNextSystemProcess+0xb0>)
 800090c:	f831 1013 	ldrh.w	r1, [r1, r3, lsl #1]
 8000910:	f3c1 010d 	ubfx	r1, r1, #0, #14
 8000914:	441a      	add	r2, r3
 8000916:	0090      	lsls	r0, r2, #2
 8000918:	4a20      	ldr	r2, [pc, #128]	; (800099c <SchedulerNextSystemProcess+0xb8>)
 800091a:	4402      	add	r2, r0
 800091c:	8912      	ldrh	r2, [r2, #8]
 800091e:	1a88      	subs	r0, r1, r2
 8000920:	4285      	cmp	r5, r0
 8000922:	da05      	bge.n	8000930 <SchedulerNextSystemProcess+0x4c>
				schedulerContext[ptrTask].maxDelayProcessCtn = schedulerProcess[ptrTask].uiTimeProcessCounter - SchedulerInstanceMap[ptrTask].uiTimeProcess;
 8000924:	005a      	lsls	r2, r3, #1
 8000926:	4413      	add	r3, r2
 8000928:	00da      	lsls	r2, r3, #3
 800092a:	4b1b      	ldr	r3, [pc, #108]	; (8000998 <SchedulerNextSystemProcess+0xb4>)
 800092c:	4413      	add	r3, r2
 800092e:	8198      	strh	r0, [r3, #12]
			SchedulerExecuteSystemProcess();
 8000930:	f7ff ffa6 	bl	8000880 <SchedulerExecuteSystemProcess>
			taskExecuted = TRUE;
 8000934:	2001      	movs	r0, #1
	while ( ( taskExecuted == FALSE ) && ( i <= NUM_OF_SCHED_TASKS ) );
 8000936:	bb60      	cbnz	r0, 8000992 <SchedulerNextSystemProcess+0xae>
 8000938:	2c02      	cmp	r4, #2
 800093a:	d82a      	bhi.n	8000992 <SchedulerNextSystemProcess+0xae>
        i++;
 800093c:	3401      	adds	r4, #1
 800093e:	b2e4      	uxtb	r4, r4
        ptrTask++;
 8000940:	4a17      	ldr	r2, [pc, #92]	; (80009a0 <SchedulerNextSystemProcess+0xbc>)
 8000942:	7813      	ldrb	r3, [r2, #0]
 8000944:	3301      	adds	r3, #1
		ptrTask %= NUM_OF_SCHED_TASKS;
 8000946:	f003 0301 	and.w	r3, r3, #1
 800094a:	7013      	strb	r3, [r2, #0]
		if ( schedulerProcess[ptrTask].bEnabledUrgentSystemTask == TRUE ||
 800094c:	4a11      	ldr	r2, [pc, #68]	; (8000994 <SchedulerNextSystemProcess+0xb0>)
 800094e:	eb02 0243 	add.w	r2, r2, r3, lsl #1
 8000952:	7852      	ldrb	r2, [r2, #1]
 8000954:	09d2      	lsrs	r2, r2, #7
 8000956:	d1c9      	bne.n	80008ec <SchedulerNextSystemProcess+0x8>
			 ( schedulerProcess[ptrTask].bEnabledSystemTask == TRUE  && schedulerProcess[ptrTask].uiTimeProcessCounter >= SchedulerInstanceMap[ptrTask].uiTimeProcess ) )
 8000958:	490e      	ldr	r1, [pc, #56]	; (8000994 <SchedulerNextSystemProcess+0xb0>)
 800095a:	eb01 0143 	add.w	r1, r1, r3, lsl #1
 800095e:	7849      	ldrb	r1, [r1, #1]
		if ( schedulerProcess[ptrTask].bEnabledUrgentSystemTask == TRUE ||
 8000960:	f011 0f40 	tst.w	r1, #64	; 0x40
 8000964:	d0e7      	beq.n	8000936 <SchedulerNextSystemProcess+0x52>
			 ( schedulerProcess[ptrTask].bEnabledSystemTask == TRUE  && schedulerProcess[ptrTask].uiTimeProcessCounter >= SchedulerInstanceMap[ptrTask].uiTimeProcess ) )
 8000966:	490b      	ldr	r1, [pc, #44]	; (8000994 <SchedulerNextSystemProcess+0xb0>)
 8000968:	f831 5013 	ldrh.w	r5, [r1, r3, lsl #1]
 800096c:	f3c5 050d 	ubfx	r5, r5, #0, #14
 8000970:	0059      	lsls	r1, r3, #1
 8000972:	4419      	add	r1, r3
 8000974:	008e      	lsls	r6, r1, #2
 8000976:	4909      	ldr	r1, [pc, #36]	; (800099c <SchedulerNextSystemProcess+0xb8>)
 8000978:	4431      	add	r1, r6
 800097a:	8909      	ldrh	r1, [r1, #8]
 800097c:	428d      	cmp	r5, r1
 800097e:	dbda      	blt.n	8000936 <SchedulerNextSystemProcess+0x52>
 8000980:	e7b4      	b.n	80008ec <SchedulerNextSystemProcess+0x8>
				schedulerProcess[ptrTask].bEnabledUrgentSystemTask = FALSE;
 8000982:	4a04      	ldr	r2, [pc, #16]	; (8000994 <SchedulerNextSystemProcess+0xb0>)
 8000984:	eb02 0243 	add.w	r2, r2, r3, lsl #1
 8000988:	7851      	ldrb	r1, [r2, #1]
 800098a:	f36f 11c7 	bfc	r1, #7, #1
 800098e:	7051      	strb	r1, [r2, #1]
 8000990:	e7b5      	b.n	80008fe <SchedulerNextSystemProcess+0x1a>
}
 8000992:	bd70      	pop	{r4, r5, r6, pc}
 8000994:	200000c0 	.word	0x200000c0
 8000998:	2000008c 	.word	0x2000008c
 800099c:	080036c4 	.word	0x080036c4
 80009a0:	200000bc 	.word	0x200000bc

080009a4 <CreateQueue>:
 * @return  None.
 *
 ****************************************************************************/
void CreateQueue(tCircularBuffer* buffer, uint8_t* bufferPtr, uint16_t size)
{
	buffer->bufferPtr = bufferPtr;
 80009a4:	6081      	str	r1, [r0, #8]
	buffer->bufferLen = size;
 80009a6:	80c2      	strh	r2, [r0, #6]
	buffer->readPtr = 0;
 80009a8:	2300      	movs	r3, #0
 80009aa:	8043      	strh	r3, [r0, #2]
	buffer->writePtr = 0;
 80009ac:	8083      	strh	r3, [r0, #4]
    buffer->numOfBytes = 0;
 80009ae:	8003      	strh	r3, [r0, #0]
 80009b0:	4770      	bx	lr

080009b2 <AddQueueByte>:
 *
 * @return  None.
 *
 ****************************************************************************/
void AddQueueByte(tCircularBuffer* buffer, uint8_t data)
{
 80009b2:	b538      	push	{r3, r4, r5, lr}
 80009b4:	4604      	mov	r4, r0
 80009b6:	460d      	mov	r5, r1
	interruptsDisable();
 80009b8:	f000 fa40 	bl	8000e3c <interruptsDisable>
    buffer->bufferPtr[buffer->writePtr]= data;
 80009bc:	68a2      	ldr	r2, [r4, #8]
 80009be:	88a3      	ldrh	r3, [r4, #4]
 80009c0:	54d5      	strb	r5, [r2, r3]
    buffer->numOfBytes++;
 80009c2:	8823      	ldrh	r3, [r4, #0]
 80009c4:	3301      	adds	r3, #1
 80009c6:	8023      	strh	r3, [r4, #0]
    buffer->writePtr++;
 80009c8:	88a3      	ldrh	r3, [r4, #4]
 80009ca:	3301      	adds	r3, #1
 80009cc:	b29b      	uxth	r3, r3
    buffer->writePtr %= buffer->bufferLen;
 80009ce:	88e1      	ldrh	r1, [r4, #6]
 80009d0:	fbb3 f2f1 	udiv	r2, r3, r1
 80009d4:	fb01 3312 	mls	r3, r1, r2, r3
 80009d8:	80a3      	strh	r3, [r4, #4]
	interruptsEnable();
 80009da:	f000 fa1b 	bl	8000e14 <interruptsEnable>
 80009de:	bd38      	pop	{r3, r4, r5, pc}

080009e0 <GetQueueByte>:
 *
 * @return  Next byte into queue
 *
 ****************************************************************************/
uint8_t GetQueueByte(tCircularBuffer* buffer)
{
 80009e0:	b538      	push	{r3, r4, r5, lr}
 80009e2:	4604      	mov	r4, r0
    uint8_t result;
	interruptsDisable();
 80009e4:	f000 fa2a 	bl	8000e3c <interruptsDisable>
    result = buffer->bufferPtr[buffer->readPtr];
 80009e8:	68a2      	ldr	r2, [r4, #8]
 80009ea:	8863      	ldrh	r3, [r4, #2]
 80009ec:	5cd5      	ldrb	r5, [r2, r3]
    buffer->numOfBytes--;
 80009ee:	8822      	ldrh	r2, [r4, #0]
 80009f0:	3a01      	subs	r2, #1
 80009f2:	8022      	strh	r2, [r4, #0]
    buffer->readPtr++;
 80009f4:	3301      	adds	r3, #1
 80009f6:	b29b      	uxth	r3, r3
    buffer->readPtr %= buffer->bufferLen;
 80009f8:	88e1      	ldrh	r1, [r4, #6]
 80009fa:	fbb3 f2f1 	udiv	r2, r3, r1
 80009fe:	fb01 3312 	mls	r3, r1, r2, r3
 8000a02:	8063      	strh	r3, [r4, #2]
    interruptsEnable();
 8000a04:	f000 fa06 	bl	8000e14 <interruptsEnable>
    return result;
}
 8000a08:	4628      	mov	r0, r5
 8000a0a:	bd38      	pop	{r3, r4, r5, pc}

08000a0c <GetQueuePendingBytes>:
 *
 ****************************************************************************/
uint16_t GetQueuePendingBytes(tCircularBuffer* buffer)
{
    return buffer->numOfBytes;
}
 8000a0c:	8800      	ldrh	r0, [r0, #0]
 8000a0e:	4770      	bx	lr

08000a10 <GetQueueFreeBytes>:
 * @return  Free spaces in queue
 *
 ****************************************************************************/
uint16_t GetQueueFreeBytes(tCircularBuffer* buffer)
{
    return (buffer->bufferLen-buffer->numOfBytes);
 8000a10:	88c3      	ldrh	r3, [r0, #6]
 8000a12:	8800      	ldrh	r0, [r0, #0]
 8000a14:	1a18      	subs	r0, r3, r0
}
 8000a16:	b280      	uxth	r0, r0
 8000a18:	4770      	bx	lr

08000a1a <diffTime>:
 **********************************************************************/
static uint32_t diffTime( uint32_t timeA, uint32_t timeB )
{
    uint32_t retVal = 0;

    if( timeA >= timeB )
 8000a1a:	4288      	cmp	r0, r1
 8000a1c:	d202      	bcs.n	8000a24 <diffTime+0xa>
    {
            retVal = timeA - timeB;
    }
    else
    {
            retVal = UINT32_MAX - (timeB - timeA);
 8000a1e:	1a09      	subs	r1, r1, r0
 8000a20:	43c8      	mvns	r0, r1
    }

    return retVal;
}
 8000a22:	4770      	bx	lr
            retVal = timeA - timeB;
 8000a24:	1a40      	subs	r0, r0, r1
 8000a26:	4770      	bx	lr

08000a28 <getTime>:
    uint32_t retVal = 0;

    retVal = timeMs;

    return retVal;
}
 8000a28:	4b01      	ldr	r3, [pc, #4]	; (8000a30 <getTime+0x8>)
 8000a2a:	6818      	ldr	r0, [r3, #0]
 8000a2c:	4770      	bx	lr
 8000a2e:	bf00      	nop
 8000a30:	2000006c 	.word	0x2000006c

08000a34 <SwTimerInit>:
eError SwTimerInit( void )
{
    eError result = RET_OK;
    uint8_t i;

    for( i = 0 ; i < NUM_OF_SW_TIMER ; i++ )
 8000a34:	2300      	movs	r3, #0
 8000a36:	b10b      	cbz	r3, 8000a3c <SwTimerInit+0x8>
    {
        SwTimersArray[i].state = SW_TIMER_STATE_STOPPED;
    }

    return result;
}
 8000a38:	2000      	movs	r0, #0
 8000a3a:	4770      	bx	lr
        SwTimersArray[i].state = SW_TIMER_STATE_STOPPED;
 8000a3c:	4a03      	ldr	r2, [pc, #12]	; (8000a4c <SwTimerInit+0x18>)
 8000a3e:	eb02 1203 	add.w	r2, r2, r3, lsl #4
 8000a42:	2100      	movs	r1, #0
 8000a44:	7211      	strb	r1, [r2, #8]
    for( i = 0 ; i < NUM_OF_SW_TIMER ; i++ )
 8000a46:	3301      	adds	r3, #1
 8000a48:	b2db      	uxtb	r3, r3
 8000a4a:	e7f4      	b.n	8000a36 <SwTimerInit+0x2>
 8000a4c:	2000005c 	.word	0x2000005c

08000a50 <SwTimerResetTimer>:
/**********************************************************************
 * @brief  Reset and start the timer
 * @param  pTimer:	Pointer to timer to be restart.
 **********************************************************************/
eError SwTimerResetTimer( tSwTimerIndex SwTimerIndex )
{
 8000a50:	b510      	push	{r4, lr}
 8000a52:	4604      	mov	r4, r0
    eError result = RET_OK;

    // Reset the timer.
    SwTimersArray[SwTimerIndex].startMs = getTime();
 8000a54:	f7ff ffe8 	bl	8000a28 <getTime>
 8000a58:	0124      	lsls	r4, r4, #4
 8000a5a:	4b02      	ldr	r3, [pc, #8]	; (8000a64 <SwTimerResetTimer+0x14>)
 8000a5c:	5118      	str	r0, [r3, r4]

    return result;
}
 8000a5e:	2000      	movs	r0, #0
 8000a60:	bd10      	pop	{r4, pc}
 8000a62:	bf00      	nop
 8000a64:	2000005c 	.word	0x2000005c

08000a68 <SwTimerStartTimer>:
{
 8000a68:	b510      	push	{r4, lr}
 8000a6a:	4604      	mov	r4, r0
    if( SwTimersArray[SwTimerIndex].state == SW_TIMER_STATE_CANCELLED ||
 8000a6c:	4b08      	ldr	r3, [pc, #32]	; (8000a90 <SwTimerStartTimer+0x28>)
 8000a6e:	eb03 1300 	add.w	r3, r3, r0, lsl #4
 8000a72:	7a1b      	ldrb	r3, [r3, #8]
 8000a74:	3b02      	subs	r3, #2
 8000a76:	b2db      	uxtb	r3, r3
 8000a78:	2b01      	cmp	r3, #1
 8000a7a:	d906      	bls.n	8000a8a <SwTimerStartTimer+0x22>
    SwTimersArray[SwTimerIndex].state = SW_TIMER_STATE_STARTED;
 8000a7c:	4804      	ldr	r0, [pc, #16]	; (8000a90 <SwTimerStartTimer+0x28>)
 8000a7e:	eb00 1004 	add.w	r0, r0, r4, lsl #4
 8000a82:	2301      	movs	r3, #1
 8000a84:	7203      	strb	r3, [r0, #8]
}
 8000a86:	2000      	movs	r0, #0
 8000a88:	bd10      	pop	{r4, pc}
        SwTimerResetTimer( SwTimerIndex );
 8000a8a:	f7ff ffe1 	bl	8000a50 <SwTimerResetTimer>
 8000a8e:	e7f5      	b.n	8000a7c <SwTimerStartTimer+0x14>
 8000a90:	2000005c 	.word	0x2000005c

08000a94 <SwTimerUpdateTimer>:
 * @brief  Updates all timers every millisecond
 * @param
 * @retval
 **********************************************************************/
eError SwTimerUpdateTimer( tSwTimerIndex SwTimerIndex )
{
 8000a94:	b538      	push	{r3, r4, r5, lr}
 8000a96:	4604      	mov	r4, r0
    eError result = RET_OK;
    tBool restartTimer = FALSE;

    // If timer is started, check timeout.
    if( SwTimersArray[SwTimerIndex].state == SW_TIMER_STATE_STARTED )
 8000a98:	4b16      	ldr	r3, [pc, #88]	; (8000af4 <SwTimerUpdateTimer+0x60>)
 8000a9a:	eb03 1300 	add.w	r3, r3, r0, lsl #4
 8000a9e:	7a1b      	ldrb	r3, [r3, #8]
 8000aa0:	2b01      	cmp	r3, #1
 8000aa2:	d00a      	beq.n	8000aba <SwTimerUpdateTimer+0x26>
            }
        }
    }
    // If the timer is stopped, simply shifts the start time,
    // this keeps the elapsed time.
    else if( SwTimersArray[SwTimerIndex].state == SW_TIMER_STATE_STOPPED )
 8000aa4:	b9fb      	cbnz	r3, 8000ae6 <SwTimerUpdateTimer+0x52>
    {
        SwTimersArray[SwTimerIndex].startMs++;
 8000aa6:	4913      	ldr	r1, [pc, #76]	; (8000af4 <SwTimerUpdateTimer+0x60>)
 8000aa8:	0102      	lsls	r2, r0, #4
 8000aaa:	588b      	ldr	r3, [r1, r2]
 8000aac:	3301      	adds	r3, #1
 8000aae:	508b      	str	r3, [r1, r2]
    tBool restartTimer = FALSE;
 8000ab0:	2000      	movs	r0, #0
    }

    if ( restartTimer == TRUE )
 8000ab2:	2801      	cmp	r0, #1
 8000ab4:	d019      	beq.n	8000aea <SwTimerUpdateTimer+0x56>
    {
        SwTimerStartTimer(SwTimerIndex);
    }

    return result;
}
 8000ab6:	2000      	movs	r0, #0
 8000ab8:	bd38      	pop	{r3, r4, r5, pc}
        if( diffTime( timeMs, SwTimersArray[SwTimerIndex].startMs ) >= SwTimersArray[SwTimerIndex].timeoutMs )
 8000aba:	4a0e      	ldr	r2, [pc, #56]	; (8000af4 <SwTimerUpdateTimer+0x60>)
 8000abc:	0103      	lsls	r3, r0, #4
 8000abe:	18d5      	adds	r5, r2, r3
 8000ac0:	58d1      	ldr	r1, [r2, r3]
 8000ac2:	4b0d      	ldr	r3, [pc, #52]	; (8000af8 <SwTimerUpdateTimer+0x64>)
 8000ac4:	6818      	ldr	r0, [r3, #0]
 8000ac6:	f7ff ffa8 	bl	8000a1a <diffTime>
 8000aca:	686b      	ldr	r3, [r5, #4]
 8000acc:	4298      	cmp	r0, r3
 8000ace:	d306      	bcc.n	8000ade <SwTimerUpdateTimer+0x4a>
            SwTimersArray[SwTimerIndex].state = SW_TIMER_STATE_EXPIRED;
 8000ad0:	2203      	movs	r2, #3
 8000ad2:	722a      	strb	r2, [r5, #8]
            if( NULL != SwTimersArray[SwTimerIndex].pFuncCB )
 8000ad4:	68eb      	ldr	r3, [r5, #12]
 8000ad6:	b123      	cbz	r3, 8000ae2 <SwTimerUpdateTimer+0x4e>
                    restartTimer = SwTimersArray[SwTimerIndex].pFuncCB(SwTimerIndex);
 8000ad8:	4620      	mov	r0, r4
 8000ada:	4798      	blx	r3
 8000adc:	e7e9      	b.n	8000ab2 <SwTimerUpdateTimer+0x1e>
    tBool restartTimer = FALSE;
 8000ade:	2000      	movs	r0, #0
 8000ae0:	e7e7      	b.n	8000ab2 <SwTimerUpdateTimer+0x1e>
 8000ae2:	2000      	movs	r0, #0
 8000ae4:	e7e5      	b.n	8000ab2 <SwTimerUpdateTimer+0x1e>
 8000ae6:	2000      	movs	r0, #0
 8000ae8:	e7e3      	b.n	8000ab2 <SwTimerUpdateTimer+0x1e>
        SwTimerStartTimer(SwTimerIndex);
 8000aea:	4620      	mov	r0, r4
 8000aec:	f7ff ffbc 	bl	8000a68 <SwTimerStartTimer>
 8000af0:	e7e1      	b.n	8000ab6 <SwTimerUpdateTimer+0x22>
 8000af2:	bf00      	nop
 8000af4:	2000005c 	.word	0x2000005c
 8000af8:	2000006c 	.word	0x2000006c

08000afc <SwTimerIrq>:
 * @brief  Interrupt request rutine for periodic tick
 * @param  None.
 * @retval None.
 **********************************************************************/
void SwTimerIrq( void )
{
 8000afc:	b510      	push	{r4, lr}
    uint8_t SwTimerIndex = 0;

    // Increment time global variable.
    timeMs = timeMs + TIMER_PERIOD; //timeMs++;
 8000afe:	4a06      	ldr	r2, [pc, #24]	; (8000b18 <SwTimerIrq+0x1c>)
 8000b00:	6813      	ldr	r3, [r2, #0]
 8000b02:	3301      	adds	r3, #1
 8000b04:	6013      	str	r3, [r2, #0]

    // Update timers
    for( SwTimerIndex = 0 ; SwTimerIndex < NUM_OF_SW_TIMER ; SwTimerIndex++ )
 8000b06:	2400      	movs	r4, #0
 8000b08:	b104      	cbz	r4, 8000b0c <SwTimerIrq+0x10>
    {
        SwTimerUpdateTimer( SwTimerIndex );
    }
}
 8000b0a:	bd10      	pop	{r4, pc}
        SwTimerUpdateTimer( SwTimerIndex );
 8000b0c:	4620      	mov	r0, r4
 8000b0e:	f7ff ffc1 	bl	8000a94 <SwTimerUpdateTimer>
    for( SwTimerIndex = 0 ; SwTimerIndex < NUM_OF_SW_TIMER ; SwTimerIndex++ )
 8000b12:	3401      	adds	r4, #1
 8000b14:	b2e4      	uxtb	r4, r4
 8000b16:	e7f7      	b.n	8000b08 <SwTimerIrq+0xc>
 8000b18:	2000006c 	.word	0x2000006c

08000b1c <pipeDeviceByteReceived>:
 * @param	data to be saved.
 * @return  None.
 ****************************************************************************/
eError pipeDeviceByteReceived(ePipes id, uint8_t data)
{
    pipes[id].buffer[pipes[id].bufferRxPtr] = data;
 8000b1c:	4b0b      	ldr	r3, [pc, #44]	; (8000b4c <pipeDeviceByteReceived+0x30>)
 8000b1e:	f853 2030 	ldr.w	r2, [r3, r0, lsl #3]
 8000b22:	eb03 00c0 	add.w	r0, r3, r0, lsl #3
 8000b26:	7943      	ldrb	r3, [r0, #5]
 8000b28:	54d1      	strb	r1, [r2, r3]
    pipes[id].bufferRxPtr = (pipes[id].bufferRxPtr + 1) % (pipes[id].bufferLength);
 8000b2a:	7943      	ldrb	r3, [r0, #5]
 8000b2c:	1c5a      	adds	r2, r3, #1
 8000b2e:	7981      	ldrb	r1, [r0, #6]
 8000b30:	fb92 f3f1 	sdiv	r3, r2, r1
 8000b34:	fb01 2313 	mls	r3, r1, r3, r2
 8000b38:	b2db      	uxtb	r3, r3
 8000b3a:	7143      	strb	r3, [r0, #5]
    if ( pipes[id].bufferRxPtr == pipes[id].bufferStartingPosition )
 8000b3c:	7902      	ldrb	r2, [r0, #4]
 8000b3e:	4293      	cmp	r3, r2
 8000b40:	d001      	beq.n	8000b46 <pipeDeviceByteReceived+0x2a>
    {
        return RET_BUFFER_FULL;
    }

    return RET_OK;
 8000b42:	2000      	movs	r0, #0
}
 8000b44:	4770      	bx	lr
        return RET_BUFFER_FULL;
 8000b46:	2008      	movs	r0, #8
 8000b48:	4770      	bx	lr
 8000b4a:	bf00      	nop
 8000b4c:	200000c4 	.word	0x200000c4

08000b50 <pipeDevice1ByteReceived>:


/**Helper functions to access each pipe */
#ifdef IS_PIPE1
inline eError pipeDevice1ByteReceived(uint8_t data)
{
 8000b50:	b508      	push	{r3, lr}
	return pipeDeviceByteReceived(PIPE_1, data);
 8000b52:	4601      	mov	r1, r0
 8000b54:	2000      	movs	r0, #0
 8000b56:	f7ff ffe1 	bl	8000b1c <pipeDeviceByteReceived>
}
 8000b5a:	bd08      	pop	{r3, pc}

08000b5c <FlashCalcOffset>:
 ****************************************************************************/
uint32_t FlashCalcOffset ( uint32_t initSector, uint32_t finalSector )
{
	uint32_t offset = 0;

	offset = (finalSector - initSector) * (FLASH_SECTOR_SIZE);
 8000b5c:	1a08      	subs	r0, r1, r0

	return offset;
}
 8000b5e:	00c0      	lsls	r0, r0, #3
 8000b60:	4770      	bx	lr
	...

08000b64 <FlashInit>:
{
 8000b64:	e92d 43f8 	stmdb	sp!, {r3, r4, r5, r6, r7, r8, r9, lr}
	FlashContext[i].initAddress = FLASH_BASE;
 8000b68:	4c26      	ldr	r4, [pc, #152]	; (8000c04 <FlashInit+0xa0>)
 8000b6a:	f04f 6300 	mov.w	r3, #134217728	; 0x8000000
 8000b6e:	6063      	str	r3, [r4, #4]
	FlashContext[i].initSector = 0;
 8000b70:	2600      	movs	r6, #0
 8000b72:	6026      	str	r6, [r4, #0]
	FlashContext[i].maxOffset = FlashCalcOffset(sectorUsed, FlashInstanceMap[0].sectors);
 8000b74:	4b24      	ldr	r3, [pc, #144]	; (8000c08 <FlashInit+0xa4>)
 8000b76:	681f      	ldr	r7, [r3, #0]
 8000b78:	4639      	mov	r1, r7
 8000b7a:	4630      	mov	r0, r6
 8000b7c:	f7ff ffee 	bl	8000b5c <FlashCalcOffset>
 8000b80:	60a0      	str	r0, [r4, #8]
	for (i = 1; i < NUM_OF_FLASH; i++)
 8000b82:	2401      	movs	r4, #1
 8000b84:	e005      	b.n	8000b92 <FlashInit+0x2e>
		if ( sectorUsed < FLASH_MAX_SECTORS )
 8000b86:	f44f 3380 	mov.w	r3, #65536	; 0x10000
 8000b8a:	e00f      	b.n	8000bac <FlashInit+0x48>
			success = RET_FAIL;
 8000b8c:	2601      	movs	r6, #1
	for (i = 1; i < NUM_OF_FLASH; i++)
 8000b8e:	3401      	adds	r4, #1
 8000b90:	b2e4      	uxtb	r4, r4
 8000b92:	2c03      	cmp	r4, #3
 8000b94:	d833      	bhi.n	8000bfe <FlashInit+0x9a>
		if ( sectorUsed < FLASH_MAX_SECTORS )
 8000b96:	4b1d      	ldr	r3, [pc, #116]	; (8000c0c <FlashInit+0xa8>)
 8000b98:	881a      	ldrh	r2, [r3, #0]
 8000b9a:	f64f 73ff 	movw	r3, #65535	; 0xffff
 8000b9e:	429a      	cmp	r2, r3
 8000ba0:	d0f1      	beq.n	8000b86 <FlashInit+0x22>
 8000ba2:	4b1b      	ldr	r3, [pc, #108]	; (8000c10 <FlashInit+0xac>)
 8000ba4:	ea03 2382 	and.w	r3, r3, r2, lsl #10
 8000ba8:	0adb      	lsrs	r3, r3, #11
 8000baa:	021b      	lsls	r3, r3, #8
 8000bac:	429f      	cmp	r7, r3
 8000bae:	d2ed      	bcs.n	8000b8c <FlashInit+0x28>
			FlashContext[i].initSector = sectorUsed;
 8000bb0:	4d14      	ldr	r5, [pc, #80]	; (8000c04 <FlashInit+0xa0>)
 8000bb2:	ea4f 0844 	mov.w	r8, r4, lsl #1
 8000bb6:	eb08 0204 	add.w	r2, r8, r4
 8000bba:	0093      	lsls	r3, r2, #2
 8000bbc:	18e8      	adds	r0, r5, r3
 8000bbe:	50ef      	str	r7, [r5, r3]
			FlashContext[i].initAddress = FlashContext[i-1].initAddress + FlashContext[i-1].maxOffset;
 8000bc0:	f104 3eff 	add.w	lr, r4, #4294967295
 8000bc4:	ea4f 034e 	mov.w	r3, lr, lsl #1
 8000bc8:	eb03 010e 	add.w	r1, r3, lr
 8000bcc:	008a      	lsls	r2, r1, #2
 8000bce:	442a      	add	r2, r5
 8000bd0:	6851      	ldr	r1, [r2, #4]
 8000bd2:	4473      	add	r3, lr
 8000bd4:	009a      	lsls	r2, r3, #2
 8000bd6:	442a      	add	r2, r5
 8000bd8:	6893      	ldr	r3, [r2, #8]
 8000bda:	440b      	add	r3, r1
 8000bdc:	6043      	str	r3, [r0, #4]
			FlashContext[i].maxOffset = FlashCalcOffset(sectorUsed, (sectorUsed + FlashInstanceMap[i].sectors));
 8000bde:	4b0a      	ldr	r3, [pc, #40]	; (8000c08 <FlashInit+0xa4>)
 8000be0:	f853 3024 	ldr.w	r3, [r3, r4, lsl #2]
 8000be4:	eb07 0903 	add.w	r9, r7, r3
 8000be8:	4649      	mov	r1, r9
 8000bea:	4638      	mov	r0, r7
 8000bec:	f7ff ffb6 	bl	8000b5c <FlashCalcOffset>
 8000bf0:	44a0      	add	r8, r4
 8000bf2:	ea4f 0388 	mov.w	r3, r8, lsl #2
 8000bf6:	441d      	add	r5, r3
 8000bf8:	60a8      	str	r0, [r5, #8]
			sectorUsed +=  FlashInstanceMap[i].sectors;
 8000bfa:	464f      	mov	r7, r9
 8000bfc:	e7c7      	b.n	8000b8e <FlashInit+0x2a>
}
 8000bfe:	4630      	mov	r0, r6
 8000c00:	e8bd 83f8 	ldmia.w	sp!, {r3, r4, r5, r6, r7, r8, r9, pc}
 8000c04:	200000cc 	.word	0x200000cc
 8000c08:	080036dc 	.word	0x080036dc
 8000c0c:	1fff75e0 	.word	0x1fff75e0
 8000c10:	003ffc00 	.word	0x003ffc00

08000c14 <GPIOWritePort>:
 ****************************************************************************/
eError GPIOWritePort(tGPIO port, tGPIOValue value)
{
	eError 	success = RET_OK;

	if ( value == GPIO_DEFAULT )
 8000c14:	2903      	cmp	r1, #3
 8000c16:	d015      	beq.n	8000c44 <GPIOWritePort+0x30>
{
 8000c18:	b508      	push	{r3, lr}
 8000c1a:	460a      	mov	r2, r1
		success = RET_INVALID_PARAMETER;
		return success;
	}


	if ( value != GPIO_TOGGLE )
 8000c1c:	2902      	cmp	r1, #2
 8000c1e:	d008      	beq.n	8000c32 <GPIOWritePort+0x1e>
	{
		HAL_GPIO_WritePin(GPIOInstanceMap[port].port, GPIOInstanceMap[port].pin, value);
 8000c20:	4b09      	ldr	r3, [pc, #36]	; (8000c48 <GPIOWritePort+0x34>)
 8000c22:	0100      	lsls	r0, r0, #4
 8000c24:	1819      	adds	r1, r3, r0
 8000c26:	8889      	ldrh	r1, [r1, #4]
 8000c28:	5818      	ldr	r0, [r3, r0]
 8000c2a:	f000 fe8b 	bl	8001944 <HAL_GPIO_WritePin>
	else
	{
		HAL_GPIO_TogglePin(GPIOInstanceMap[port].port, GPIOInstanceMap[port].pin);
	}

	return success;
 8000c2e:	2000      	movs	r0, #0
 8000c30:	bd08      	pop	{r3, pc}
		HAL_GPIO_TogglePin(GPIOInstanceMap[port].port, GPIOInstanceMap[port].pin);
 8000c32:	4b05      	ldr	r3, [pc, #20]	; (8000c48 <GPIOWritePort+0x34>)
 8000c34:	0100      	lsls	r0, r0, #4
 8000c36:	181a      	adds	r2, r3, r0
 8000c38:	8891      	ldrh	r1, [r2, #4]
 8000c3a:	5818      	ldr	r0, [r3, r0]
 8000c3c:	f000 fe87 	bl	800194e <HAL_GPIO_TogglePin>
	return success;
 8000c40:	2000      	movs	r0, #0
 8000c42:	bd08      	pop	{r3, pc}
		return success;
 8000c44:	2005      	movs	r0, #5
 8000c46:	4770      	bx	lr
 8000c48:	080036ec 	.word	0x080036ec

08000c4c <InitGPIOClock>:
 * @brief  Enable GPIO clock.
 * @param	port to enable clock.
 * @return  None.
 ****************************************************************************/
void InitGPIOClock(tGPIO port)
{
 8000c4c:	b086      	sub	sp, #24
	/* Enable the GPIO Clock */
#ifdef GPIOA
	if ( GPIOInstanceMap[port].port == GPIOA ){
 8000c4e:	0103      	lsls	r3, r0, #4
 8000c50:	4a3c      	ldr	r2, [pc, #240]	; (8000d44 <InitGPIOClock+0xf8>)
 8000c52:	58d3      	ldr	r3, [r2, r3]
 8000c54:	f1b3 4f90 	cmp.w	r3, #1207959552	; 0x48000000
 8000c58:	d01f      	beq.n	8000c9a <InitGPIOClock+0x4e>
		__GPIOA_CLK_ENABLE();
	}
#endif //GPIOA

#ifdef GPIOB
	if( GPIOInstanceMap[port].port == GPIOB ){
 8000c5a:	0103      	lsls	r3, r0, #4
 8000c5c:	4a39      	ldr	r2, [pc, #228]	; (8000d44 <InitGPIOClock+0xf8>)
 8000c5e:	58d2      	ldr	r2, [r2, r3]
 8000c60:	4b39      	ldr	r3, [pc, #228]	; (8000d48 <InitGPIOClock+0xfc>)
 8000c62:	429a      	cmp	r2, r3
 8000c64:	d027      	beq.n	8000cb6 <InitGPIOClock+0x6a>
		__GPIOB_CLK_ENABLE();
	}
#endif //GPIOB

#ifdef GPIOC
	if( GPIOInstanceMap[port].port == GPIOC ){
 8000c66:	0103      	lsls	r3, r0, #4
 8000c68:	4a36      	ldr	r2, [pc, #216]	; (8000d44 <InitGPIOClock+0xf8>)
 8000c6a:	58d2      	ldr	r2, [r2, r3]
 8000c6c:	4b37      	ldr	r3, [pc, #220]	; (8000d4c <InitGPIOClock+0x100>)
 8000c6e:	429a      	cmp	r2, r3
 8000c70:	d02f      	beq.n	8000cd2 <InitGPIOClock+0x86>
		__GPIOC_CLK_ENABLE();
	}
#endif //GPIOC

#ifdef GPIOD
	if( GPIOInstanceMap[port].port == GPIOD ){
 8000c72:	0103      	lsls	r3, r0, #4
 8000c74:	4a33      	ldr	r2, [pc, #204]	; (8000d44 <InitGPIOClock+0xf8>)
 8000c76:	58d2      	ldr	r2, [r2, r3]
 8000c78:	4b35      	ldr	r3, [pc, #212]	; (8000d50 <InitGPIOClock+0x104>)
 8000c7a:	429a      	cmp	r2, r3
 8000c7c:	d037      	beq.n	8000cee <InitGPIOClock+0xa2>
		__GPIOD_CLK_ENABLE();
	}
#endif //GPIOD

#ifdef GPIOE
	if( GPIOInstanceMap[port].port == GPIOE ){
 8000c7e:	0103      	lsls	r3, r0, #4
 8000c80:	4a30      	ldr	r2, [pc, #192]	; (8000d44 <InitGPIOClock+0xf8>)
 8000c82:	58d2      	ldr	r2, [r2, r3]
 8000c84:	4b33      	ldr	r3, [pc, #204]	; (8000d54 <InitGPIOClock+0x108>)
 8000c86:	429a      	cmp	r2, r3
 8000c88:	d03f      	beq.n	8000d0a <InitGPIOClock+0xbe>
		__GPIOG_CLK_ENABLE();
	}
#endif //GPIOG

#ifdef GPIOH
	if( GPIOInstanceMap[port].port == GPIOH ){
 8000c8a:	0100      	lsls	r0, r0, #4
 8000c8c:	4b2d      	ldr	r3, [pc, #180]	; (8000d44 <InitGPIOClock+0xf8>)
 8000c8e:	581a      	ldr	r2, [r3, r0]
 8000c90:	4b31      	ldr	r3, [pc, #196]	; (8000d58 <InitGPIOClock+0x10c>)
 8000c92:	429a      	cmp	r2, r3
 8000c94:	d047      	beq.n	8000d26 <InitGPIOClock+0xda>
		__GPIOI_CLK_ENABLE();
	}
#endif //GPIOI


}
 8000c96:	b006      	add	sp, #24
 8000c98:	4770      	bx	lr
		__GPIOA_CLK_ENABLE();
 8000c9a:	f103 4378 	add.w	r3, r3, #4160749568	; 0xf8000000
 8000c9e:	f503 3304 	add.w	r3, r3, #135168	; 0x21000
 8000ca2:	6cda      	ldr	r2, [r3, #76]	; 0x4c
 8000ca4:	f042 0201 	orr.w	r2, r2, #1
 8000ca8:	64da      	str	r2, [r3, #76]	; 0x4c
 8000caa:	6cdb      	ldr	r3, [r3, #76]	; 0x4c
 8000cac:	f003 0301 	and.w	r3, r3, #1
 8000cb0:	9300      	str	r3, [sp, #0]
 8000cb2:	9b00      	ldr	r3, [sp, #0]
 8000cb4:	e7d1      	b.n	8000c5a <InitGPIOClock+0xe>
		__GPIOB_CLK_ENABLE();
 8000cb6:	f103 4378 	add.w	r3, r3, #4160749568	; 0xf8000000
 8000cba:	f503 3303 	add.w	r3, r3, #134144	; 0x20c00
 8000cbe:	6cda      	ldr	r2, [r3, #76]	; 0x4c
 8000cc0:	f042 0202 	orr.w	r2, r2, #2
 8000cc4:	64da      	str	r2, [r3, #76]	; 0x4c
 8000cc6:	6cdb      	ldr	r3, [r3, #76]	; 0x4c
 8000cc8:	f003 0302 	and.w	r3, r3, #2
 8000ccc:	9301      	str	r3, [sp, #4]
 8000cce:	9b01      	ldr	r3, [sp, #4]
 8000cd0:	e7c9      	b.n	8000c66 <InitGPIOClock+0x1a>
		__GPIOC_CLK_ENABLE();
 8000cd2:	f103 4378 	add.w	r3, r3, #4160749568	; 0xf8000000
 8000cd6:	f503 3302 	add.w	r3, r3, #133120	; 0x20800
 8000cda:	6cda      	ldr	r2, [r3, #76]	; 0x4c
 8000cdc:	f042 0204 	orr.w	r2, r2, #4
 8000ce0:	64da      	str	r2, [r3, #76]	; 0x4c
 8000ce2:	6cdb      	ldr	r3, [r3, #76]	; 0x4c
 8000ce4:	f003 0304 	and.w	r3, r3, #4
 8000ce8:	9302      	str	r3, [sp, #8]
 8000cea:	9b02      	ldr	r3, [sp, #8]
 8000cec:	e7c1      	b.n	8000c72 <InitGPIOClock+0x26>
		__GPIOD_CLK_ENABLE();
 8000cee:	f103 4378 	add.w	r3, r3, #4160749568	; 0xf8000000
 8000cf2:	f503 3301 	add.w	r3, r3, #132096	; 0x20400
 8000cf6:	6cda      	ldr	r2, [r3, #76]	; 0x4c
 8000cf8:	f042 0208 	orr.w	r2, r2, #8
 8000cfc:	64da      	str	r2, [r3, #76]	; 0x4c
 8000cfe:	6cdb      	ldr	r3, [r3, #76]	; 0x4c
 8000d00:	f003 0308 	and.w	r3, r3, #8
 8000d04:	9303      	str	r3, [sp, #12]
 8000d06:	9b03      	ldr	r3, [sp, #12]
 8000d08:	e7b9      	b.n	8000c7e <InitGPIOClock+0x32>
		__GPIOE_CLK_ENABLE();
 8000d0a:	f103 4378 	add.w	r3, r3, #4160749568	; 0xf8000000
 8000d0e:	f503 3300 	add.w	r3, r3, #131072	; 0x20000
 8000d12:	6cda      	ldr	r2, [r3, #76]	; 0x4c
 8000d14:	f042 0210 	orr.w	r2, r2, #16
 8000d18:	64da      	str	r2, [r3, #76]	; 0x4c
 8000d1a:	6cdb      	ldr	r3, [r3, #76]	; 0x4c
 8000d1c:	f003 0310 	and.w	r3, r3, #16
 8000d20:	9304      	str	r3, [sp, #16]
 8000d22:	9b04      	ldr	r3, [sp, #16]
 8000d24:	e7b1      	b.n	8000c8a <InitGPIOClock+0x3e>
		__GPIOH_CLK_ENABLE();
 8000d26:	f103 4378 	add.w	r3, r3, #4160749568	; 0xf8000000
 8000d2a:	f503 33fa 	add.w	r3, r3, #128000	; 0x1f400
 8000d2e:	6cda      	ldr	r2, [r3, #76]	; 0x4c
 8000d30:	f042 0280 	orr.w	r2, r2, #128	; 0x80
 8000d34:	64da      	str	r2, [r3, #76]	; 0x4c
 8000d36:	6cdb      	ldr	r3, [r3, #76]	; 0x4c
 8000d38:	f003 0380 	and.w	r3, r3, #128	; 0x80
 8000d3c:	9305      	str	r3, [sp, #20]
 8000d3e:	9b05      	ldr	r3, [sp, #20]
}
 8000d40:	e7a9      	b.n	8000c96 <InitGPIOClock+0x4a>
 8000d42:	bf00      	nop
 8000d44:	080036ec 	.word	0x080036ec
 8000d48:	48000400 	.word	0x48000400
 8000d4c:	48000800 	.word	0x48000800
 8000d50:	48000c00 	.word	0x48000c00
 8000d54:	48001000 	.word	0x48001000
 8000d58:	48001c00 	.word	0x48001c00

08000d5c <GPIOInit>:
{
 8000d5c:	b570      	push	{r4, r5, r6, lr}
 8000d5e:	b086      	sub	sp, #24
	for (port = 0; port < NUM_OF_GPIO; port++)
 8000d60:	2400      	movs	r4, #0
	eError 				success = RET_OK;
 8000d62:	4626      	mov	r6, r4
	for (port = 0; port < NUM_OF_GPIO; port++)
 8000d64:	e001      	b.n	8000d6a <GPIOInit+0xe>
 8000d66:	3401      	adds	r4, #1
 8000d68:	b2e4      	uxtb	r4, r4
 8000d6a:	2c0e      	cmp	r4, #14
 8000d6c:	d81b      	bhi.n	8000da6 <GPIOInit+0x4a>
		InitGPIOClock(port);
 8000d6e:	4620      	mov	r0, r4
 8000d70:	f7ff ff6c 	bl	8000c4c <InitGPIOClock>
        GPIO_InitStructure.Pin =  	(uint32_t)GPIOInstanceMap[port].pin;
 8000d74:	4a0d      	ldr	r2, [pc, #52]	; (8000dac <GPIOInit+0x50>)
 8000d76:	0123      	lsls	r3, r4, #4
 8000d78:	18d5      	adds	r5, r2, r3
 8000d7a:	88a9      	ldrh	r1, [r5, #4]
 8000d7c:	9101      	str	r1, [sp, #4]
		GPIO_InitStructure.Mode = 	(uint32_t)GPIOInstanceMap[port].mode;
 8000d7e:	68a9      	ldr	r1, [r5, #8]
 8000d80:	9102      	str	r1, [sp, #8]
		GPIO_InitStructure.Speed = 	(uint32_t)GPIOInstanceMap[port].speed;
 8000d82:	7b29      	ldrb	r1, [r5, #12]
 8000d84:	9104      	str	r1, [sp, #16]
		GPIO_InitStructure.Pull = 	(uint32_t)GPIOInstanceMap[port].pupd;
 8000d86:	7b69      	ldrb	r1, [r5, #13]
 8000d88:	9103      	str	r1, [sp, #12]
		GPIO_InitStructure.Alternate = (uint32_t)GPIOInstanceMap[port].alternate;
 8000d8a:	7ba9      	ldrb	r1, [r5, #14]
 8000d8c:	9105      	str	r1, [sp, #20]
		HAL_GPIO_Init(GPIOInstanceMap[port].port, &GPIO_InitStructure);
 8000d8e:	a901      	add	r1, sp, #4
 8000d90:	58d0      	ldr	r0, [r2, r3]
 8000d92:	f000 fd07 	bl	80017a4 <HAL_GPIO_Init>
		if ( GPIOInstanceMap[port].initialValue != GPIO_DEFAULT )
 8000d96:	7be9      	ldrb	r1, [r5, #15]
 8000d98:	2903      	cmp	r1, #3
 8000d9a:	d0e4      	beq.n	8000d66 <GPIOInit+0xa>
			success = GPIOWritePort(port, GPIOInstanceMap[port].initialValue);
 8000d9c:	4620      	mov	r0, r4
 8000d9e:	f7ff ff39 	bl	8000c14 <GPIOWritePort>
 8000da2:	4606      	mov	r6, r0
 8000da4:	e7df      	b.n	8000d66 <GPIOInit+0xa>
}
 8000da6:	4630      	mov	r0, r6
 8000da8:	b006      	add	sp, #24
 8000daa:	bd70      	pop	{r4, r5, r6, pc}
 8000dac:	080036ec 	.word	0x080036ec

08000db0 <interruptsInit>:
 * @brief  Init interrupts driver
 * 		   Configure all IRQ Channels declared on intPriorityMap list
 * @return eError :
 **********************************************************************/
eError interruptsInit( void )
{
 8000db0:	b510      	push	{r4, lr}
	eError result = RET_OK;
	uint8_t i;

	for(i = 0; i < MAX_IRQ; i++)
 8000db2:	2400      	movs	r4, #0
 8000db4:	e001      	b.n	8000dba <interruptsInit+0xa>
 8000db6:	3401      	adds	r4, #1
 8000db8:	b2e4      	uxtb	r4, r4
 8000dba:	2c0e      	cmp	r4, #14
 8000dbc:	d80c      	bhi.n	8000dd8 <interruptsInit+0x28>
	{
		if (IS_SETTABLE_PRIORITY_IRQ(interruptsInstanceMap[i].IRQn))
 8000dbe:	4b07      	ldr	r3, [pc, #28]	; (8000ddc <interruptsInit+0x2c>)
 8000dc0:	f913 0024 	ldrsb.w	r0, [r3, r4, lsl #2]
 8000dc4:	f110 0f05 	cmn.w	r0, #5
 8000dc8:	dbf5      	blt.n	8000db6 <interruptsInit+0x6>
		{
			HAL_NVIC_SetPriority(interruptsInstanceMap[i].IRQn, (uint32_t)interruptsInstanceMap[i].PreemptPriority, (uint32_t)interruptsInstanceMap[i].SubPriority);
 8000dca:	eb03 0384 	add.w	r3, r3, r4, lsl #2
 8000dce:	789a      	ldrb	r2, [r3, #2]
 8000dd0:	7859      	ldrb	r1, [r3, #1]
 8000dd2:	f000 fc59 	bl	8001688 <HAL_NVIC_SetPriority>
 8000dd6:	e7ee      	b.n	8000db6 <interruptsInit+0x6>
		}
	}
	return result;
}
 8000dd8:	2000      	movs	r0, #0
 8000dda:	bd10      	pop	{r4, pc}
 8000ddc:	20000000 	.word	0x20000000

08000de0 <interruptsStart>:
 * @brief  Start interrupts driver
 * 		   Enable all IRQ Channels configured as ENABLE on intPriorityMap list
 * @return eError :
 **********************************************************************/
eError interruptsStart( void )
{
 8000de0:	b510      	push	{r4, lr}
	eError result = RET_OK;
	uint8_t i;

	for(i = 0; i < MAX_IRQ; i++)
 8000de2:	2400      	movs	r4, #0
 8000de4:	e001      	b.n	8000dea <interruptsStart+0xa>
 8000de6:	3401      	adds	r4, #1
 8000de8:	b2e4      	uxtb	r4, r4
 8000dea:	2c0e      	cmp	r4, #14
 8000dec:	d80d      	bhi.n	8000e0a <interruptsStart+0x2a>
	{
		if (interruptsInstanceMap[i].State == IRQ_ENABLE)
 8000dee:	4b08      	ldr	r3, [pc, #32]	; (8000e10 <interruptsStart+0x30>)
 8000df0:	eb03 0384 	add.w	r3, r3, r4, lsl #2
 8000df4:	78db      	ldrb	r3, [r3, #3]
 8000df6:	2b01      	cmp	r3, #1
 8000df8:	d1f5      	bne.n	8000de6 <interruptsStart+0x6>
		{
			if (IS_NVIC_DEVICE_IRQ(interruptsInstanceMap[i].IRQn))
 8000dfa:	4b05      	ldr	r3, [pc, #20]	; (8000e10 <interruptsStart+0x30>)
 8000dfc:	f913 0024 	ldrsb.w	r0, [r3, r4, lsl #2]
 8000e00:	2800      	cmp	r0, #0
 8000e02:	dbf0      	blt.n	8000de6 <interruptsStart+0x6>
			{
				HAL_NVIC_EnableIRQ(interruptsInstanceMap[i].IRQn);
 8000e04:	f000 fc72 	bl	80016ec <HAL_NVIC_EnableIRQ>
 8000e08:	e7ed      	b.n	8000de6 <interruptsStart+0x6>

		}
	}

	return result;
}
 8000e0a:	2000      	movs	r0, #0
 8000e0c:	bd10      	pop	{r4, pc}
 8000e0e:	bf00      	nop
 8000e10:	20000000 	.word	0x20000000

08000e14 <interruptsEnable>:
 * @param	None.
 * @return  None.
 ****************************************************************************/
void interruptsEnable( void )
{
	if (countIrqAllDisable<=1)
 8000e14:	4b08      	ldr	r3, [pc, #32]	; (8000e38 <interruptsEnable+0x24>)
 8000e16:	881b      	ldrh	r3, [r3, #0]
 8000e18:	b29b      	uxth	r3, r3
 8000e1a:	2b01      	cmp	r3, #1
 8000e1c:	d906      	bls.n	8000e2c <interruptsEnable+0x18>
		countIrqAllDisable=0;
		__enable_irq();
	}
	else
	{
		countIrqAllDisable--;
 8000e1e:	4a06      	ldr	r2, [pc, #24]	; (8000e38 <interruptsEnable+0x24>)
 8000e20:	8813      	ldrh	r3, [r2, #0]
 8000e22:	b29b      	uxth	r3, r3
 8000e24:	3b01      	subs	r3, #1
 8000e26:	b29b      	uxth	r3, r3
 8000e28:	8013      	strh	r3, [r2, #0]
 8000e2a:	4770      	bx	lr
		countIrqAllDisable=0;
 8000e2c:	2200      	movs	r2, #0
 8000e2e:	4b02      	ldr	r3, [pc, #8]	; (8000e38 <interruptsEnable+0x24>)
 8000e30:	801a      	strh	r2, [r3, #0]
  \details Enables IRQ interrupts by clearing the I-bit in the CPSR.
           Can only be executed in Privileged modes.
 */
__attribute__( ( always_inline ) ) __STATIC_INLINE void __enable_irq(void)
{
  __ASM volatile ("cpsie i" : : : "memory");
 8000e32:	b662      	cpsie	i
 8000e34:	4770      	bx	lr
 8000e36:	bf00      	nop
 8000e38:	20000070 	.word	0x20000070

08000e3c <interruptsDisable>:
  \details Disables IRQ interrupts by setting the I-bit in the CPSR.
  Can only be executed in Privileged modes.
 */
__attribute__( ( always_inline ) ) __STATIC_INLINE void __disable_irq(void)
{
  __ASM volatile ("cpsid i" : : : "memory");
 8000e3c:	b672      	cpsid	i
 * @return  None.
 ****************************************************************************/
void interruptsDisable( void )
{
	__disable_irq();
	countIrqAllDisable++;
 8000e3e:	4a03      	ldr	r2, [pc, #12]	; (8000e4c <interruptsDisable+0x10>)
 8000e40:	8813      	ldrh	r3, [r2, #0]
 8000e42:	b29b      	uxth	r3, r3
 8000e44:	3301      	adds	r3, #1
 8000e46:	b29b      	uxth	r3, r3
 8000e48:	8013      	strh	r3, [r2, #0]
 8000e4a:	4770      	bx	lr
 8000e4c:	20000070 	.word	0x20000070

08000e50 <NMI_Handler>:
/******************************************************************************/
/*            Cortex-M4 Processor Exceptions Handlers                         */
/******************************************************************************/

void NMI_Handler(void)
{
 8000e50:	4770      	bx	lr

08000e52 <HardFault_Handler>:
  * @brief  This function handles Hard Fault exception.
  * @param  None
  * @retval None
  */
void HardFault_Handler(void)
{
 8000e52:	e7fe      	b.n	8000e52 <HardFault_Handler>

08000e54 <MemManage_Handler>:
  * @brief  This function handles Memory Manage exception.
  * @param  None
  * @retval None
  */
void MemManage_Handler(void)
{
 8000e54:	e7fe      	b.n	8000e54 <MemManage_Handler>

08000e56 <BusFault_Handler>:
  * @brief  This function handles Bus Fault exception.
  * @param  None
  * @retval None
  */
void BusFault_Handler(void)
{
 8000e56:	e7fe      	b.n	8000e56 <BusFault_Handler>

08000e58 <UsageFault_Handler>:
  * @brief  This function handles Usage Fault exception.
  * @param  None
  * @retval None
  */
void UsageFault_Handler(void)
{
 8000e58:	e7fe      	b.n	8000e58 <UsageFault_Handler>

08000e5a <SVC_Handler>:
  * @brief  This function handles SVCall exception.
  * @param  None
  * @retval None
  */
void SVC_Handler(void)
{
 8000e5a:	4770      	bx	lr

08000e5c <PendSV_Handler>:
  * @brief  This function handles PendSVC exception.
  * @param  None
  * @retval None
  */
void PendSV_Handler(void)
{
 8000e5c:	4770      	bx	lr

08000e5e <SysTick_Handler>:
/**
 * @brief  This function handles SysTick Handler.
 * @param  None
 * @retval None
 */
void SysTick_Handler(void) {
 8000e5e:	b508      	push	{r3, lr}

	HAL_SYSTICK_IRQHandler();
 8000e60:	f000 fc76 	bl	8001750 <HAL_SYSTICK_IRQHandler>
 8000e64:	bd08      	pop	{r3, pc}

08000e66 <RTC_WKUP_IRQHandler>:
  * @brief  This function handles RTC Auto wake-up interrupt request.
  * @param  None
  * @retval None
  */
void RTC_WKUP_IRQHandler(void)
{
 8000e66:	4770      	bx	lr

08000e68 <EXTI0_IRQHandler>:
 * @brief  This function handles external line 0 and 1 interrupt request.
 * @param  None
 * @retval None
 */
void EXTI0_IRQHandler(void)
{
 8000e68:	4770      	bx	lr

08000e6a <EXTI1_IRQHandler>:
 * @brief  This function handles external line 0 interrupt request.
 * @param  None
 * @retval None
 */
void EXTI1_IRQHandler(void)
{
 8000e6a:	4770      	bx	lr

08000e6c <EXTI9_5_IRQHandler>:
	/*TODO : the HAL_GPIO_EXTI_IRQHandler(GPIO_PIN_X) could be commented for GPIO_PIN unused */
	//HAL_GPIO_EXTI_IRQHandler(GPIO_PIN_2);
}

void EXTI9_5_IRQHandler(void)
{
 8000e6c:	b508      	push	{r3, lr}
	/*TODO : the HAL_GPIO_EXTI_IRQHandler(GPIO_PIN_X) could be commented for GPIO_PIN unused */
	HAL_GPIO_EXTI_IRQHandler(GPIO_PIN_5);
 8000e6e:	2020      	movs	r0, #32
 8000e70:	f000 fd72 	bl	8001958 <HAL_GPIO_EXTI_IRQHandler>
 8000e74:	bd08      	pop	{r3, pc}

08000e76 <USART1_IRQHandler>:
  * @retval None
  * @Note   This function is redefined in "main.h" and related to DMA
  *         used for USART data transmission
  */
void USART1_IRQHandler(void)
{
 8000e76:	b508      	push	{r3, lr}
	HAL_UART1_Callback();
 8000e78:	f000 f824 	bl	8000ec4 <HAL_UART1_Callback>
 8000e7c:	bd08      	pop	{r3, pc}

08000e7e <USART2_IRQHandler>:
  * @Note   This function is redefined in "main.h" and related to DMA
  *         used for USART data transmission
  */

void USART2_IRQHandler(void)
{
 8000e7e:	b508      	push	{r3, lr}
	HAL_UART2_Callback();
 8000e80:	f000 f821 	bl	8000ec6 <HAL_UART2_Callback>
 8000e84:	bd08      	pop	{r3, pc}

08000e86 <I2C1_EV_IRQHandler>:
  * @brief  This function handles I2C1 interrupt request.
  * @param  None
  * @retval None
  */
void I2C1_EV_IRQHandler(void)
{
 8000e86:	b508      	push	{r3, lr}
	HAL_I2C1_Callback();
 8000e88:	f000 f822 	bl	8000ed0 <HAL_I2C1_Callback>
 8000e8c:	bd08      	pop	{r3, pc}

08000e8e <I2C2_EV_IRQHandler>:
  * @brief  This function handles I2C1 interrupt request.
  * @param  None
  * @retval None
  */
void I2C2_EV_IRQHandler(void)
{
 8000e8e:	b508      	push	{r3, lr}
	HAL_I2C2_Callback();
 8000e90:	f000 f81f 	bl	8000ed2 <HAL_I2C2_Callback>
 8000e94:	bd08      	pop	{r3, pc}

08000e96 <SPI1_IRQHandler>:
  * @brief  This function handles SPI2 interrupt request.
  * @param  None
  * @retval None
  */
void SPI1_IRQHandler(void)
{
 8000e96:	b508      	push	{r3, lr}
    HAL_SPI1_Callback();
 8000e98:	f000 f81c 	bl	8000ed4 <HAL_SPI1_Callback>
 8000e9c:	bd08      	pop	{r3, pc}

08000e9e <SPI2_IRQHandler>:
  * @brief  This function handles SPI2 interrupt request.
  * @param  None
  * @retval None
  */
void SPI2_IRQHandler(void)
{
 8000e9e:	b508      	push	{r3, lr}
    HAL_SPI2_Callback();
 8000ea0:	f000 f81d 	bl	8000ede <HAL_SPI2_Callback>
 8000ea4:	bd08      	pop	{r3, pc}

08000ea6 <SPI3_IRQHandler>:
}

void SPI3_IRQHandler(void)
{
 8000ea6:	b508      	push	{r3, lr}
    HAL_SPI3_Callback();
 8000ea8:	f000 f81a 	bl	8000ee0 <HAL_SPI3_Callback>
 8000eac:	bd08      	pop	{r3, pc}

08000eae <TIM2_IRQHandler>:
  * @brief  This function handles TIM interrupt request.
  * @param  None
  * @retval None
  */
void TIM2_IRQHandler(void)
{
 8000eae:	4770      	bx	lr

08000eb0 <TIM3_IRQHandler>:
  * @brief  This function handles TIM interrupt request.
  * @param  None
  * @retval None
  */
void TIM3_IRQHandler(void)
{
 8000eb0:	4770      	bx	lr

08000eb2 <HAL_SYSTICK_Callback>:
  * @brief SYSTICK callback
  * @param None
  * @retval None
  */
void HAL_SYSTICK_Callback(void)
{
 8000eb2:	b508      	push	{r3, lr}
	HAL_IncTick();
 8000eb4:	f000 fbda 	bl	800166c <HAL_IncTick>

	SchedulerProcessesAutoEnable();
 8000eb8:	f7ff fc8a 	bl	80007d0 <SchedulerProcessesAutoEnable>
#ifdef SW_TIMER_AVAILABLE
	SwTimerIrq();
 8000ebc:	f7ff fe1e 	bl	8000afc <SwTimerIrq>
 8000ec0:	bd08      	pop	{r3, pc}

08000ec2 <HAL_GPIO_EXTI_Callback>:
  * @brief EXTI line detection callbacks
  * @param GPIO_Pin: Specifies the pins connected EXTI line
  * @retval None
  */
void HAL_GPIO_EXTI_Callback(uint16_t GPIO_Pin)
{
 8000ec2:	4770      	bx	lr

08000ec4 <HAL_UART1_Callback>:
  * @brief UART1 callback
  * @param None
  * @retval None
  */
void HAL_UART1_Callback(void)
{
 8000ec4:	4770      	bx	lr

08000ec6 <HAL_UART2_Callback>:
  * @brief UART2 callback
  * @param None
  * @retval None
  */
void HAL_UART2_Callback(void)
{
 8000ec6:	b508      	push	{r3, lr}
#ifdef IS_UART2
	uartDriverMainIRQHandler(UART_2);
 8000ec8:	2000      	movs	r0, #0
 8000eca:	f000 fafd 	bl	80014c8 <uartDriverMainIRQHandler>
 8000ece:	bd08      	pop	{r3, pc}

08000ed0 <HAL_I2C1_Callback>:
#endif
}


void HAL_I2C1_Callback(void)
{
 8000ed0:	4770      	bx	lr

08000ed2 <HAL_I2C2_Callback>:
	i2cDriverMainIRQHandler(I2C_1);
#endif
}

void HAL_I2C2_Callback(void)
{
 8000ed2:	4770      	bx	lr

08000ed4 <HAL_SPI1_Callback>:
	i2cDriverMainIRQHandler(I2C_2);
#endif
}

void HAL_SPI1_Callback(void)
{
 8000ed4:	b508      	push	{r3, lr}
#ifdef IS_SPI1
    spiDriverMainIRQHandler(SPI_1);
 8000ed6:	2000      	movs	r0, #0
 8000ed8:	f000 f948 	bl	800116c <spiDriverMainIRQHandler>
 8000edc:	bd08      	pop	{r3, pc}

08000ede <HAL_SPI2_Callback>:
#endif
}

void HAL_SPI2_Callback(void)
{
 8000ede:	4770      	bx	lr

08000ee0 <HAL_SPI3_Callback>:
    spiDriverMainIRQHandler(SPI_2);
#endif
}

void HAL_SPI3_Callback(void)
{
 8000ee0:	b508      	push	{r3, lr}
#ifdef IS_SPI3
    spiDriverMainIRQHandler(SPI_3);
 8000ee2:	2001      	movs	r0, #1
 8000ee4:	f000 f942 	bl	800116c <spiDriverMainIRQHandler>
 8000ee8:	bd08      	pop	{r3, pc}
	...

08000eec <storePowerUpReason>:
 *
 ****************************************************************************/
static void storePowerUpReason( void )
{
	/* Check if the StandBy flag is set */
	if (__HAL_PWR_GET_FLAG(PWR_FLAG_SB) != RESET)
 8000eec:	4b29      	ldr	r3, [pc, #164]	; (8000f94 <storePowerUpReason+0xa8>)
 8000eee:	691b      	ldr	r3, [r3, #16]
 8000ef0:	f413 7f80 	tst.w	r3, #256	; 0x100
 8000ef4:	d126      	bne.n	8000f44 <storePowerUpReason+0x58>

		powerUpReason = SYSTEM_RESET_POWER_UP;
	}
	else
	{
		if ( __HAL_RCC_GET_FLAG(RCC_FLAG_WWDGRST) != RESET )
 8000ef6:	4b28      	ldr	r3, [pc, #160]	; (8000f98 <storePowerUpReason+0xac>)
 8000ef8:	f8d3 3094 	ldr.w	r3, [r3, #148]	; 0x94
 8000efc:	f013 4f80 	tst.w	r3, #1073741824	; 0x40000000
 8000f00:	d12f      	bne.n	8000f62 <storePowerUpReason+0x76>
		{
			powerUpReason = SYSTEM_RESET_WINDOW_WATCHDOG;
		}
		else if (__HAL_RCC_GET_FLAG(RCC_FLAG_IWDGRST) != RESET)
 8000f02:	4b25      	ldr	r3, [pc, #148]	; (8000f98 <storePowerUpReason+0xac>)
 8000f04:	f8d3 3094 	ldr.w	r3, [r3, #148]	; 0x94
 8000f08:	f013 5f00 	tst.w	r3, #536870912	; 0x20000000
 8000f0c:	d12d      	bne.n	8000f6a <storePowerUpReason+0x7e>
		{
			powerUpReason = SYSTEM_RESET_WATCHDOG;
		}
		else if ( __HAL_RCC_GET_FLAG(RCC_FLAG_SFTRST) != RESET )
 8000f0e:	4b22      	ldr	r3, [pc, #136]	; (8000f98 <storePowerUpReason+0xac>)
 8000f10:	f8d3 3094 	ldr.w	r3, [r3, #148]	; 0x94
 8000f14:	f013 5f80 	tst.w	r3, #268435456	; 0x10000000
 8000f18:	d12b      	bne.n	8000f72 <storePowerUpReason+0x86>
		{
			powerUpReason = SYSTEM_RESET_SOFTWARE;
		}
		else if ( __HAL_RCC_GET_FLAG(RCC_FLAG_PINRST) != RESET )
 8000f1a:	4b1f      	ldr	r3, [pc, #124]	; (8000f98 <storePowerUpReason+0xac>)
 8000f1c:	f8d3 3094 	ldr.w	r3, [r3, #148]	; 0x94
 8000f20:	f013 6f80 	tst.w	r3, #67108864	; 0x4000000
 8000f24:	d129      	bne.n	8000f7a <storePowerUpReason+0x8e>
		{
			powerUpReason = SYSTEM_RESET_POWER_UP;
		}
		else if ( __HAL_RCC_GET_FLAG(RCC_FLAG_BORRST) != RESET )
 8000f26:	4b1c      	ldr	r3, [pc, #112]	; (8000f98 <storePowerUpReason+0xac>)
 8000f28:	f8d3 3094 	ldr.w	r3, [r3, #148]	; 0x94
 8000f2c:	f013 6f00 	tst.w	r3, #134217728	; 0x8000000
 8000f30:	d127      	bne.n	8000f82 <storePowerUpReason+0x96>
		{
			powerUpReason = SYSTEM_BOR_RESET;
		}
		else if ( __HAL_RCC_GET_FLAG(RCC_FLAG_LPWRRST) != RESET )
 8000f32:	4b19      	ldr	r3, [pc, #100]	; (8000f98 <storePowerUpReason+0xac>)
 8000f34:	f8d3 3094 	ldr.w	r3, [r3, #148]	; 0x94
 8000f38:	2b00      	cmp	r3, #0
 8000f3a:	db26      	blt.n	8000f8a <storePowerUpReason+0x9e>
		{
			powerUpReason = SYSTEM_LOW_POWER_RESET;
		}
		else
		{
			powerUpReason = SYSTEM_FIRST_POWER_UP;
 8000f3c:	2200      	movs	r2, #0
 8000f3e:	4b17      	ldr	r3, [pc, #92]	; (8000f9c <storePowerUpReason+0xb0>)
 8000f40:	701a      	strb	r2, [r3, #0]
 8000f42:	e006      	b.n	8000f52 <storePowerUpReason+0x66>
		__HAL_PWR_CLEAR_FLAG(PWR_FLAG_SB);
 8000f44:	f44f 7280 	mov.w	r2, #256	; 0x100
 8000f48:	4b12      	ldr	r3, [pc, #72]	; (8000f94 <storePowerUpReason+0xa8>)
 8000f4a:	619a      	str	r2, [r3, #24]
		powerUpReason = SYSTEM_RESET_POWER_UP;
 8000f4c:	2201      	movs	r2, #1
 8000f4e:	4b13      	ldr	r3, [pc, #76]	; (8000f9c <storePowerUpReason+0xb0>)
 8000f50:	701a      	strb	r2, [r3, #0]
		}
	}

	__HAL_RCC_CLEAR_RESET_FLAGS();
 8000f52:	4a11      	ldr	r2, [pc, #68]	; (8000f98 <storePowerUpReason+0xac>)
 8000f54:	f8d2 3094 	ldr.w	r3, [r2, #148]	; 0x94
 8000f58:	f443 0300 	orr.w	r3, r3, #8388608	; 0x800000
 8000f5c:	f8c2 3094 	str.w	r3, [r2, #148]	; 0x94
 8000f60:	4770      	bx	lr
			powerUpReason = SYSTEM_RESET_WINDOW_WATCHDOG;
 8000f62:	2207      	movs	r2, #7
 8000f64:	4b0d      	ldr	r3, [pc, #52]	; (8000f9c <storePowerUpReason+0xb0>)
 8000f66:	701a      	strb	r2, [r3, #0]
 8000f68:	e7f3      	b.n	8000f52 <storePowerUpReason+0x66>
			powerUpReason = SYSTEM_RESET_WATCHDOG;
 8000f6a:	2202      	movs	r2, #2
 8000f6c:	4b0b      	ldr	r3, [pc, #44]	; (8000f9c <storePowerUpReason+0xb0>)
 8000f6e:	701a      	strb	r2, [r3, #0]
 8000f70:	e7ef      	b.n	8000f52 <storePowerUpReason+0x66>
			powerUpReason = SYSTEM_RESET_SOFTWARE;
 8000f72:	2203      	movs	r2, #3
 8000f74:	4b09      	ldr	r3, [pc, #36]	; (8000f9c <storePowerUpReason+0xb0>)
 8000f76:	701a      	strb	r2, [r3, #0]
 8000f78:	e7eb      	b.n	8000f52 <storePowerUpReason+0x66>
			powerUpReason = SYSTEM_RESET_POWER_UP;
 8000f7a:	2201      	movs	r2, #1
 8000f7c:	4b07      	ldr	r3, [pc, #28]	; (8000f9c <storePowerUpReason+0xb0>)
 8000f7e:	701a      	strb	r2, [r3, #0]
 8000f80:	e7e7      	b.n	8000f52 <storePowerUpReason+0x66>
			powerUpReason = SYSTEM_BOR_RESET;
 8000f82:	2204      	movs	r2, #4
 8000f84:	4b05      	ldr	r3, [pc, #20]	; (8000f9c <storePowerUpReason+0xb0>)
 8000f86:	701a      	strb	r2, [r3, #0]
 8000f88:	e7e3      	b.n	8000f52 <storePowerUpReason+0x66>
			powerUpReason = SYSTEM_LOW_POWER_RESET;
 8000f8a:	2206      	movs	r2, #6
 8000f8c:	4b03      	ldr	r3, [pc, #12]	; (8000f9c <storePowerUpReason+0xb0>)
 8000f8e:	701a      	strb	r2, [r3, #0]
 8000f90:	e7df      	b.n	8000f52 <storePowerUpReason+0x66>
 8000f92:	bf00      	nop
 8000f94:	40007000 	.word	0x40007000
 8000f98:	40021000 	.word	0x40021000
 8000f9c:	20000072 	.word	0x20000072

08000fa0 <watchdogInit>:
	{
		result = WWDGInit();
	}
#endif
	return result;
}
 8000fa0:	2000      	movs	r0, #0
 8000fa2:	4770      	bx	lr

08000fa4 <SystemClock_Config>:
 *
 * @return  None.
 *
 ****************************************************************************/
static eError SystemClock_Config(void)
{
 8000fa4:	b500      	push	{lr}
 8000fa6:	b099      	sub	sp, #100	; 0x64
	RCC_PeriphCLKInitTypeDef PeriphClkInit;
#endif

	do
	{
		RCC_OscInitStruct.OscillatorType = SystemMap.OscillatorType;
 8000fa8:	4b2c      	ldr	r3, [pc, #176]	; (800105c <SystemClock_Config+0xb8>)
 8000faa:	681a      	ldr	r2, [r3, #0]
 8000fac:	9207      	str	r2, [sp, #28]
		RCC_OscInitStruct.HSEState	= SystemMap.HSEState;
 8000fae:	685a      	ldr	r2, [r3, #4]
 8000fb0:	9208      	str	r2, [sp, #32]
		RCC_OscInitStruct.HSICalibrationValue = SystemMap.HSICalibrationValue;
 8000fb2:	691a      	ldr	r2, [r3, #16]
 8000fb4:	920b      	str	r2, [sp, #44]	; 0x2c
		RCC_OscInitStruct.HSIState 	= SystemMap.HSIState;
 8000fb6:	68da      	ldr	r2, [r3, #12]
 8000fb8:	920a      	str	r2, [sp, #40]	; 0x28
		RCC_OscInitStruct.LSEState = SystemMap.LSEState;
 8000fba:	689a      	ldr	r2, [r3, #8]
 8000fbc:	9209      	str	r2, [sp, #36]	; 0x24
		RCC_OscInitStruct.LSIState = SystemMap.LSIState;
 8000fbe:	695a      	ldr	r2, [r3, #20]
 8000fc0:	920c      	str	r2, [sp, #48]	; 0x30
		RCC_OscInitStruct.MSIState = SystemMap.MSIState;
 8000fc2:	699a      	ldr	r2, [r3, #24]
 8000fc4:	920d      	str	r2, [sp, #52]	; 0x34
		RCC_OscInitStruct.MSICalibrationValue = SystemMap.MSICalibrationValue;
 8000fc6:	69da      	ldr	r2, [r3, #28]
 8000fc8:	920e      	str	r2, [sp, #56]	; 0x38
		RCC_OscInitStruct.MSIClockRange= SystemMap.MSIClockRange;
 8000fca:	6a1a      	ldr	r2, [r3, #32]
 8000fcc:	920f      	str	r2, [sp, #60]	; 0x3c

		RCC_OscInitStruct.PLL.PLLState 	= SystemMap.PLLState;
 8000fce:	6a5a      	ldr	r2, [r3, #36]	; 0x24
 8000fd0:	9211      	str	r2, [sp, #68]	; 0x44
		RCC_OscInitStruct.PLL.PLLSource = SystemMap.PLLSource;
 8000fd2:	6a9a      	ldr	r2, [r3, #40]	; 0x28
 8000fd4:	9212      	str	r2, [sp, #72]	; 0x48
		RCC_OscInitStruct.PLL.PLLM 		= SystemMap.PLLM;
 8000fd6:	6ada      	ldr	r2, [r3, #44]	; 0x2c
 8000fd8:	9213      	str	r2, [sp, #76]	; 0x4c
		RCC_OscInitStruct.PLL.PLLN		= SystemMap.PLLN;
 8000fda:	6b1a      	ldr	r2, [r3, #48]	; 0x30
 8000fdc:	9214      	str	r2, [sp, #80]	; 0x50
		RCC_OscInitStruct.PLL.PLLP		= SystemMap.PLLP;
 8000fde:	6b5a      	ldr	r2, [r3, #52]	; 0x34
 8000fe0:	9215      	str	r2, [sp, #84]	; 0x54
		RCC_OscInitStruct.PLL.PLLQ		= SystemMap.PLLQ;
 8000fe2:	6b9a      	ldr	r2, [r3, #56]	; 0x38
 8000fe4:	9216      	str	r2, [sp, #88]	; 0x58
		RCC_OscInitStruct.PLL.PLLR		= SystemMap.PLLR;
 8000fe6:	6bdb      	ldr	r3, [r3, #60]	; 0x3c
 8000fe8:	9317      	str	r3, [sp, #92]	; 0x5c
	#if (INDEPENDENT_WATCHDOG == 1)//Assure that LSI is configured ON (needed by IWDG)
		RCC_OscInitStruct.OscillatorType |= RCC_OSCILLATORTYPE_LSI;
		RCC_OscInitStruct.LSIState |= RCC_LSI_ON;
	#endif

		if (HAL_RCC_OscConfig(&RCC_OscInitStruct) != HAL_OK)
 8000fea:	a807      	add	r0, sp, #28
 8000fec:	f000 fdda 	bl	8001ba4 <HAL_RCC_OscConfig>
 8000ff0:	b118      	cbz	r0, 8000ffa <SystemClock_Config+0x56>
		{
			result = RET_FAIL;
 8000ff2:	2001      	movs	r0, #1
		__HAL_RCC_SYSCFG_CLK_ENABLE();
	} while (0);

	return result;

}
 8000ff4:	b019      	add	sp, #100	; 0x64
 8000ff6:	f85d fb04 	ldr.w	pc, [sp], #4
		RCC_ClkInitStruct.ClockType = RCC_CLOCKTYPE_SYSCLK | RCC_CLOCKTYPE_HCLK | RCC_CLOCKTYPE_PCLK1 | RCC_CLOCKTYPE_PCLK2;
 8000ffa:	230f      	movs	r3, #15
 8000ffc:	9302      	str	r3, [sp, #8]
		RCC_ClkInitStruct.SYSCLKSource 	 = SystemMap.SYSCLKSource;
 8000ffe:	4b17      	ldr	r3, [pc, #92]	; (800105c <SystemClock_Config+0xb8>)
 8001000:	6c1a      	ldr	r2, [r3, #64]	; 0x40
 8001002:	9203      	str	r2, [sp, #12]
		RCC_ClkInitStruct.AHBCLKDivider  = SystemMap.AHBCLKDivider;
 8001004:	6c5a      	ldr	r2, [r3, #68]	; 0x44
 8001006:	9204      	str	r2, [sp, #16]
		RCC_ClkInitStruct.APB1CLKDivider = SystemMap.APB1CLKDivider;
 8001008:	6c9a      	ldr	r2, [r3, #72]	; 0x48
 800100a:	9205      	str	r2, [sp, #20]
		RCC_ClkInitStruct.APB2CLKDivider = SystemMap.APB2CLKDivider;
 800100c:	6cdb      	ldr	r3, [r3, #76]	; 0x4c
 800100e:	9306      	str	r3, [sp, #24]
		if (HAL_RCC_ClockConfig(&RCC_ClkInitStruct, FLASH_LATENCY_4) != HAL_OK)
 8001010:	2104      	movs	r1, #4
 8001012:	a802      	add	r0, sp, #8
 8001014:	f001 f8ac 	bl	8002170 <HAL_RCC_ClockConfig>
 8001018:	b108      	cbz	r0, 800101e <SystemClock_Config+0x7a>
			result = RET_FAIL;
 800101a:	2001      	movs	r0, #1
 800101c:	e7ea      	b.n	8000ff4 <SystemClock_Config+0x50>
		if (HAL_PWREx_ControlVoltageScaling(PWR_REGULATOR_VOLTAGE_SCALE1) != HAL_OK)
 800101e:	f44f 7000 	mov.w	r0, #512	; 0x200
 8001022:	f000 fcaf 	bl	8001984 <HAL_PWREx_ControlVoltageScaling>
 8001026:	b108      	cbz	r0, 800102c <SystemClock_Config+0x88>
			result = RET_FAIL;
 8001028:	2001      	movs	r0, #1
 800102a:	e7e3      	b.n	8000ff4 <SystemClock_Config+0x50>
		HAL_SYSTICK_Config(HAL_RCC_GetHCLKFreq()/1000);
 800102c:	f001 f976 	bl	800231c <HAL_RCC_GetHCLKFreq>
 8001030:	4b0b      	ldr	r3, [pc, #44]	; (8001060 <SystemClock_Config+0xbc>)
 8001032:	fba3 3000 	umull	r3, r0, r3, r0
 8001036:	0980      	lsrs	r0, r0, #6
 8001038:	f000 fb64 	bl	8001704 <HAL_SYSTICK_Config>
		HAL_SYSTICK_CLKSourceConfig(SYSTICK_CLKSOURCE_HCLK);
 800103c:	2004      	movs	r0, #4
 800103e:	f000 fb77 	bl	8001730 <HAL_SYSTICK_CLKSourceConfig>
		__HAL_RCC_SYSCFG_CLK_ENABLE();
 8001042:	4b08      	ldr	r3, [pc, #32]	; (8001064 <SystemClock_Config+0xc0>)
 8001044:	6e1a      	ldr	r2, [r3, #96]	; 0x60
 8001046:	f042 0201 	orr.w	r2, r2, #1
 800104a:	661a      	str	r2, [r3, #96]	; 0x60
 800104c:	6e1b      	ldr	r3, [r3, #96]	; 0x60
 800104e:	f003 0301 	and.w	r3, r3, #1
 8001052:	9301      	str	r3, [sp, #4]
 8001054:	9b01      	ldr	r3, [sp, #4]
	eError result = RET_OK;
 8001056:	2000      	movs	r0, #0
 8001058:	e7cc      	b.n	8000ff4 <SystemClock_Config+0x50>
 800105a:	bf00      	nop
 800105c:	080037dc 	.word	0x080037dc
 8001060:	10624dd3 	.word	0x10624dd3
 8001064:	40021000 	.word	0x40021000

08001068 <stm32L4Init>:
{
 8001068:	b508      	push	{r3, lr}
	storePowerUpReason();
 800106a:	f7ff ff3f 	bl	8000eec <storePowerUpReason>
	result = SystemClock_Config();
 800106e:	f7ff ff99 	bl	8000fa4 <SystemClock_Config>
	if (result == RET_OK)
 8001072:	4603      	mov	r3, r0
 8001074:	b910      	cbnz	r0, 800107c <stm32L4Init+0x14>
			result = watchdogInit();
 8001076:	f7ff ff93 	bl	8000fa0 <watchdogInit>
 800107a:	4603      	mov	r3, r0
}
 800107c:	4618      	mov	r0, r3
 800107e:	bd08      	pop	{r3, pc}

08001080 <systemGetCLkFreq>:
 * @brief   Get the System CLK Frequency
 * @param   ClockFrequency.
 * @return  eError.
 ****************************************************************************/
eError systemGetCLkFreq(uint32_t *ClockFrequency)
{
 8001080:	b510      	push	{r4, lr}
 8001082:	4604      	mov	r4, r0
    eError result = RET_OK;

    *ClockFrequency = HAL_RCC_GetHCLKFreq();
 8001084:	f001 f94a 	bl	800231c <HAL_RCC_GetHCLKFreq>
 8001088:	6020      	str	r0, [r4, #0]

    return result;
}
 800108a:	2000      	movs	r0, #0
 800108c:	bd10      	pop	{r4, pc}

0800108e <systemPreConfiguration>:
 *    then it will jump to execute the interrupt handler located in the Flash
 * @param	None.
 * @return  None.
 ****************************************************************************/
void systemPreConfiguration( void )
{
 800108e:	4770      	bx	lr

08001090 <spiRestartSlaveMode>:
/****************************************************************************
 *    PUBLIC FUNCTIONS
 ****************************************************************************/

static void spiRestartSlaveMode(SPI_HandleTypeDef *hspi)
{
 8001090:	b508      	push	{r3, lr}
    uint8_t i;
#ifdef IS_SPI1
    if (hspi->Instance == SPI1){
 8001092:	6802      	ldr	r2, [r0, #0]
    if (hspi->Instance == SPI2){
        i = SPI_2;
    }
#endif
#ifdef IS_SPI3
    if (hspi->Instance == SPI3){
 8001094:	4b0a      	ldr	r3, [pc, #40]	; (80010c0 <spiRestartSlaveMode+0x30>)
 8001096:	429a      	cmp	r2, r3
 8001098:	d003      	beq.n	80010a2 <spiRestartSlaveMode+0x12>
 800109a:	2100      	movs	r1, #0
        i = SPI_3;
    }
#endif

    if(hspi->Init.Mode == SPI_MODE_SLAVE) {
 800109c:	6843      	ldr	r3, [r0, #4]
 800109e:	b113      	cbz	r3, 80010a6 <spiRestartSlaveMode+0x16>
 80010a0:	bd08      	pop	{r3, pc}
        i = SPI_3;
 80010a2:	2101      	movs	r1, #1
 80010a4:	e7fa      	b.n	800109c <spiRestartSlaveMode+0xc>
        HAL_SPI_Receive_IT(hspi, halRxSlaveBuffer[i], SPIInstanceMap[i].rxBufferSize);
 80010a6:	008b      	lsls	r3, r1, #2
 80010a8:	440b      	add	r3, r1
 80010aa:	4a06      	ldr	r2, [pc, #24]	; (80010c4 <spiRestartSlaveMode+0x34>)
 80010ac:	eb02 1203 	add.w	r2, r2, r3, lsl #4
 80010b0:	f8b2 2040 	ldrh.w	r2, [r2, #64]	; 0x40
 80010b4:	4904      	ldr	r1, [pc, #16]	; (80010c8 <spiRestartSlaveMode+0x38>)
 80010b6:	4419      	add	r1, r3
 80010b8:	f001 fb52 	bl	8002760 <HAL_SPI_Receive_IT>
    }
}
 80010bc:	e7f0      	b.n	80010a0 <spiRestartSlaveMode+0x10>
 80010be:	bf00      	nop
 80010c0:	40003c00 	.word	0x40003c00
 80010c4:	08003830 	.word	0x08003830
 80010c8:	200001f4 	.word	0x200001f4

080010cc <HAL_SPI_ErrorCallback>:
}

/**
 * When an error ocurred. If it's SLAVE mode. Start Listening again
 **/
void  HAL_SPI_ErrorCallback (SPI_HandleTypeDef *hspi){
 80010cc:	b508      	push	{r3, lr}
    spiRestartSlaveMode(hspi);
 80010ce:	f7ff ffdf 	bl	8001090 <spiRestartSlaveMode>
 80010d2:	bd08      	pop	{r3, pc}

080010d4 <HAL_SPI_MspInit>:
  *           - NVIC configuration for SPI interrupt request enable (SHOULD NOT BE DONE HERE)
  * @param hspi: SPI handle pointer
  * @retval None
 ****************************************************************************/
void HAL_SPI_MspInit(SPI_HandleTypeDef *hspi)
{
 80010d4:	b082      	sub	sp, #8
#if defined(IS_SPI1)
    if (hspi->Instance == SPI1){
 80010d6:	6802      	ldr	r2, [r0, #0]
 80010d8:	4b10      	ldr	r3, [pc, #64]	; (800111c <HAL_SPI_MspInit+0x48>)
 80010da:	429a      	cmp	r2, r3
 80010dc:	d005      	beq.n	80010ea <HAL_SPI_MspInit+0x16>
        __HAL_RCC_SPI2_CLK_ENABLE();
    }
#endif

#if defined(IS_SPI3)
    if (hspi->Instance == SPI3){
 80010de:	6802      	ldr	r2, [r0, #0]
 80010e0:	4b0f      	ldr	r3, [pc, #60]	; (8001120 <HAL_SPI_MspInit+0x4c>)
 80010e2:	429a      	cmp	r2, r3
 80010e4:	d00d      	beq.n	8001102 <HAL_SPI_MspInit+0x2e>
        /* Enable SPI clock */
        __HAL_RCC_SPI3_CLK_ENABLE();
    }
#endif
}
 80010e6:	b002      	add	sp, #8
 80010e8:	4770      	bx	lr
        __HAL_RCC_SPI1_CLK_ENABLE();
 80010ea:	f503 4360 	add.w	r3, r3, #57344	; 0xe000
 80010ee:	6e1a      	ldr	r2, [r3, #96]	; 0x60
 80010f0:	f442 5280 	orr.w	r2, r2, #4096	; 0x1000
 80010f4:	661a      	str	r2, [r3, #96]	; 0x60
 80010f6:	6e1b      	ldr	r3, [r3, #96]	; 0x60
 80010f8:	f403 5380 	and.w	r3, r3, #4096	; 0x1000
 80010fc:	9300      	str	r3, [sp, #0]
 80010fe:	9b00      	ldr	r3, [sp, #0]
 8001100:	e7ed      	b.n	80010de <HAL_SPI_MspInit+0xa>
        __HAL_RCC_SPI3_CLK_ENABLE();
 8001102:	f503 33ea 	add.w	r3, r3, #119808	; 0x1d400
 8001106:	6d9a      	ldr	r2, [r3, #88]	; 0x58
 8001108:	f442 4200 	orr.w	r2, r2, #32768	; 0x8000
 800110c:	659a      	str	r2, [r3, #88]	; 0x58
 800110e:	6d9b      	ldr	r3, [r3, #88]	; 0x58
 8001110:	f403 4300 	and.w	r3, r3, #32768	; 0x8000
 8001114:	9301      	str	r3, [sp, #4]
 8001116:	9b01      	ldr	r3, [sp, #4]
}
 8001118:	e7e5      	b.n	80010e6 <HAL_SPI_MspInit+0x12>
 800111a:	bf00      	nop
 800111c:	40013000 	.word	0x40013000
 8001120:	40003c00 	.word	0x40003c00

08001124 <HAL_SPI_MspDeInit>:
 * @param hspi ST Handler
 ****************************************************************************/
void HAL_SPI_MspDeInit(SPI_HandleTypeDef *hspi)
{
#if defined(IS_SPI1)
    if(hspi->Instance == SPI1){
 8001124:	6802      	ldr	r2, [r0, #0]
 8001126:	4b0f      	ldr	r3, [pc, #60]	; (8001164 <HAL_SPI_MspDeInit+0x40>)
 8001128:	429a      	cmp	r2, r3
 800112a:	d004      	beq.n	8001136 <HAL_SPI_MspDeInit+0x12>
        __HAL_RCC_SPI2_RELEASE_RESET();
    }
#endif

#if defined(IS_SPI3)
    if(hspi->Instance == SPI3){
 800112c:	6802      	ldr	r2, [r0, #0]
 800112e:	4b0e      	ldr	r3, [pc, #56]	; (8001168 <HAL_SPI_MspDeInit+0x44>)
 8001130:	429a      	cmp	r2, r3
 8001132:	d00b      	beq.n	800114c <HAL_SPI_MspDeInit+0x28>
 8001134:	4770      	bx	lr
        __HAL_RCC_SPI1_FORCE_RESET();
 8001136:	f503 4360 	add.w	r3, r3, #57344	; 0xe000
 800113a:	6c1a      	ldr	r2, [r3, #64]	; 0x40
 800113c:	f442 5280 	orr.w	r2, r2, #4096	; 0x1000
 8001140:	641a      	str	r2, [r3, #64]	; 0x40
        __HAL_RCC_SPI1_RELEASE_RESET();
 8001142:	6c1a      	ldr	r2, [r3, #64]	; 0x40
 8001144:	f422 5280 	bic.w	r2, r2, #4096	; 0x1000
 8001148:	641a      	str	r2, [r3, #64]	; 0x40
 800114a:	e7ef      	b.n	800112c <HAL_SPI_MspDeInit+0x8>
        __HAL_RCC_SPI3_FORCE_RESET();
 800114c:	f503 33ea 	add.w	r3, r3, #119808	; 0x1d400
 8001150:	6b9a      	ldr	r2, [r3, #56]	; 0x38
 8001152:	f442 4200 	orr.w	r2, r2, #32768	; 0x8000
 8001156:	639a      	str	r2, [r3, #56]	; 0x38
        __HAL_RCC_SPI3_RELEASE_RESET();
 8001158:	6b9a      	ldr	r2, [r3, #56]	; 0x38
 800115a:	f422 4200 	bic.w	r2, r2, #32768	; 0x8000
 800115e:	639a      	str	r2, [r3, #56]	; 0x38
    }
#endif
}
 8001160:	e7e8      	b.n	8001134 <HAL_SPI_MspDeInit+0x10>
 8001162:	bf00      	nop
 8001164:	40013000 	.word	0x40013000
 8001168:	40003c00 	.word	0x40003c00

0800116c <spiDriverMainIRQHandler>:
 * 3) Prepare For Slave mode lecture in case the spiPort is a slave
 *
 * @param  spiPort Which port caused the interrupt
 ****************************************************************************/
void spiDriverMainIRQHandler(tSpiPort spiPort)
{
 800116c:	b570      	push	{r4, r5, r6, lr}
 800116e:	4604      	mov	r4, r0
    SPI_HandleTypeDef* hspi; //ST HAL SPI
    const tSpiInstanceMap* mspi;
    uint16_t interrupt;
    uint8_t byte;

    hspi        = &ST_SpiHandlers[spiPort];
 8001170:	2364      	movs	r3, #100	; 0x64
 8001172:	fb03 f300 	mul.w	r3, r3, r0
 8001176:	4a32      	ldr	r2, [pc, #200]	; (8001240 <spiDriverMainIRQHandler+0xd4>)
 8001178:	1898      	adds	r0, r3, r2
    uint32_t itsource = hspi->Instance->CR2;
 800117a:	589b      	ldr	r3, [r3, r2]
 800117c:	6859      	ldr	r1, [r3, #4]
    uint32_t itflag   = hspi->Instance->SR;
 800117e:	689b      	ldr	r3, [r3, #8]
    if(((itflag & SPI_FLAG_OVR) == RESET) &&
 8001180:	f003 0241 	and.w	r2, r3, #65	; 0x41
 8001184:	2a01      	cmp	r2, #1
 8001186:	d007      	beq.n	8001198 <spiDriverMainIRQHandler+0x2c>
    else if(((itflag & SPI_FLAG_TXE) != RESET) &&
 8001188:	f013 0f02 	tst.w	r3, #2
 800118c:	d009      	beq.n	80011a2 <spiDriverMainIRQHandler+0x36>
 800118e:	f011 0f80 	tst.w	r1, #128	; 0x80
 8001192:	d10c      	bne.n	80011ae <spiDriverMainIRQHandler+0x42>
    return SPI_IT_ERR;
 8001194:	2520      	movs	r5, #32
 8001196:	e005      	b.n	80011a4 <spiDriverMainIRQHandler+0x38>
            ((itflag & SPI_FLAG_RXNE) != RESET) &&
 8001198:	f011 0f40 	tst.w	r1, #64	; 0x40
 800119c:	d0f4      	beq.n	8001188 <spiDriverMainIRQHandler+0x1c>
        return SPI_IT_RXNE;
 800119e:	2540      	movs	r5, #64	; 0x40
 80011a0:	e000      	b.n	80011a4 <spiDriverMainIRQHandler+0x38>
    return SPI_IT_ERR;
 80011a2:	2520      	movs	r5, #32
    mspi        = &SPIInstanceMap[spiPort];
    interrupt   = interruptType(hspi);

    HAL_SPI_IRQHandler(hspi);
 80011a4:	f001 fc6e 	bl	8002a84 <HAL_SPI_IRQHandler>

    //If it was a read. Check what we read and put it in our buffer
    //+call any defined callback
    if(interrupt == SPI_IT_RXNE){
 80011a8:	2d40      	cmp	r5, #64	; 0x40
 80011aa:	d002      	beq.n	80011b2 <spiDriverMainIRQHandler+0x46>
 80011ac:	bd70      	pop	{r4, r5, r6, pc}
        return SPI_IT_TXE;
 80011ae:	2580      	movs	r5, #128	; 0x80
 80011b0:	e7f8      	b.n	80011a4 <spiDriverMainIRQHandler+0x38>
        //We'll retrieve whatever is already writtern in the buffer
        byte = *(hspi->pRxBuffPtr-1);
 80011b2:	2364      	movs	r3, #100	; 0x64
 80011b4:	4a22      	ldr	r2, [pc, #136]	; (8001240 <spiDriverMainIRQHandler+0xd4>)
 80011b6:	fb03 2304 	mla	r3, r3, r4, r2
 80011ba:	6c1b      	ldr	r3, [r3, #64]	; 0x40
 80011bc:	f813 5c01 	ldrb.w	r5, [r3, #-1]

        //Process the BYTE
        if(mspi->rxCallback!= NULL){
 80011c0:	eb04 0384 	add.w	r3, r4, r4, lsl #2
 80011c4:	011a      	lsls	r2, r3, #4
 80011c6:	4b1f      	ldr	r3, [pc, #124]	; (8001244 <spiDriverMainIRQHandler+0xd8>)
 80011c8:	4413      	add	r3, r2
 80011ca:	6c9b      	ldr	r3, [r3, #72]	; 0x48
 80011cc:	b34b      	cbz	r3, 8001222 <spiDriverMainIRQHandler+0xb6>
            mspi->rxCallback(byte);
 80011ce:	4628      	mov	r0, r5
 80011d0:	4798      	blx	r3
        }

        /* In Slave mode will re-enable
        * interrupts and reset the ST handler as appropiate to continue
        * listening*/
        if(hspi->Init.Mode == SPI_MODE_SLAVE){
 80011d2:	2364      	movs	r3, #100	; 0x64
 80011d4:	4a1a      	ldr	r2, [pc, #104]	; (8001240 <spiDriverMainIRQHandler+0xd4>)
 80011d6:	fb03 2304 	mla	r3, r3, r4, r2
 80011da:	685b      	ldr	r3, [r3, #4]
 80011dc:	2b00      	cmp	r3, #0
 80011de:	d1e5      	bne.n	80011ac <spiDriverMainIRQHandler+0x40>
            hspi->State       = HAL_SPI_STATE_BUSY_RX;
 80011e0:	2364      	movs	r3, #100	; 0x64
 80011e2:	fb03 2304 	mla	r3, r3, r4, r2
 80011e6:	2204      	movs	r2, #4
 80011e8:	f883 205d 	strb.w	r2, [r3, #93]	; 0x5d
            hspi->ErrorCode   = HAL_SPI_ERROR_NONE;
 80011ec:	2200      	movs	r2, #0
 80011ee:	661a      	str	r2, [r3, #96]	; 0x60
            hspi->pRxBuffPtr  = halRxSlaveBuffer[spiPort];
 80011f0:	eb04 0284 	add.w	r2, r4, r4, lsl #2
 80011f4:	4914      	ldr	r1, [pc, #80]	; (8001248 <spiDriverMainIRQHandler+0xdc>)
 80011f6:	440a      	add	r2, r1
 80011f8:	641a      	str	r2, [r3, #64]	; 0x40
            hspi->RxXferSize  = RX_HAL_BUFFER_SIZE;
 80011fa:	2205      	movs	r2, #5
 80011fc:	f8a3 2044 	strh.w	r2, [r3, #68]	; 0x44
            hspi->RxXferCount = RX_HAL_BUFFER_SIZE;
 8001200:	f8a3 2046 	strh.w	r2, [r3, #70]	; 0x46

            if(hspi->RxXferCount == 0){
 8001204:	f8b3 3046 	ldrh.w	r3, [r3, #70]	; 0x46
 8001208:	b29b      	uxth	r3, r3
 800120a:	2b00      	cmp	r3, #0
 800120c:	d1ce      	bne.n	80011ac <spiDriverMainIRQHandler+0x40>
                __HAL_SPI_ENABLE_IT(hspi, (SPI_IT_RXNE | SPI_IT_ERR));
 800120e:	2364      	movs	r3, #100	; 0x64
 8001210:	fb03 f404 	mul.w	r4, r3, r4
 8001214:	4b0a      	ldr	r3, [pc, #40]	; (8001240 <spiDriverMainIRQHandler+0xd4>)
 8001216:	591a      	ldr	r2, [r3, r4]
 8001218:	6853      	ldr	r3, [r2, #4]
 800121a:	f043 0360 	orr.w	r3, r3, #96	; 0x60
 800121e:	6053      	str	r3, [r2, #4]
            }
        }
    }
}
 8001220:	e7c4      	b.n	80011ac <spiDriverMainIRQHandler+0x40>
            if(GetQueueFreeBytes(&spiCBuffers[spiPort].rxBuffer) > 0){
 8001222:	eb04 0244 	add.w	r2, r4, r4, lsl #1
 8001226:	00d3      	lsls	r3, r2, #3
 8001228:	4e08      	ldr	r6, [pc, #32]	; (800124c <spiDriverMainIRQHandler+0xe0>)
 800122a:	441e      	add	r6, r3
 800122c:	4630      	mov	r0, r6
 800122e:	f7ff fbef 	bl	8000a10 <GetQueueFreeBytes>
 8001232:	2800      	cmp	r0, #0
 8001234:	d0cd      	beq.n	80011d2 <spiDriverMainIRQHandler+0x66>
                AddQueueByte(&spiCBuffers[spiPort].rxBuffer, byte);
 8001236:	4629      	mov	r1, r5
 8001238:	4630      	mov	r0, r6
 800123a:	f7ff fbba 	bl	80009b2 <AddQueueByte>
 800123e:	e7c8      	b.n	80011d2 <spiDriverMainIRQHandler+0x66>
 8001240:	200000fc 	.word	0x200000fc
 8001244:	08003830 	.word	0x08003830
 8001248:	200001f4 	.word	0x200001f4
 800124c:	200001c4 	.word	0x200001c4

08001250 <spiInit>:
 *         any microcontroller register
 *
 * @return RET_OK or RET_FAIL
 ****************************************************************************/
eError spiInit(void)
{
 8001250:	b5f8      	push	{r3, r4, r5, r6, r7, lr}
    eError result = RET_OK;
    SPI_HandleTypeDef* hspi;
    const tSpiInstanceMap* mspi;
    uint8_t i;

    for(i=0; i<NUM_OF_SPI; i++) {
 8001252:	2500      	movs	r5, #0
 8001254:	e03a      	b.n	80012cc <spiInit+0x7c>
        hspi                         = &ST_SpiHandlers[i];
        mspi                         = &SPIInstanceMap[i];
        hspi->Instance               = mspi->port;
 8001256:	491f      	ldr	r1, [pc, #124]	; (80012d4 <spiInit+0x84>)
 8001258:	00ab      	lsls	r3, r5, #2
 800125a:	442b      	add	r3, r5
 800125c:	011a      	lsls	r2, r3, #4
 800125e:	188c      	adds	r4, r1, r2
 8001260:	5888      	ldr	r0, [r1, r2]
 8001262:	491d      	ldr	r1, [pc, #116]	; (80012d8 <spiInit+0x88>)
 8001264:	2264      	movs	r2, #100	; 0x64
 8001266:	fb02 f205 	mul.w	r2, r2, r5
 800126a:	188b      	adds	r3, r1, r2
 800126c:	5088      	str	r0, [r1, r2]
        hspi->Init.BaudRatePrescaler = mspi->bratePreescale;
 800126e:	68a2      	ldr	r2, [r4, #8]
 8001270:	61da      	str	r2, [r3, #28]
        hspi->Init.Direction         = mspi->direction;
 8001272:	68e2      	ldr	r2, [r4, #12]
 8001274:	609a      	str	r2, [r3, #8]
        hspi->Init.CLKPhase          = mspi->clkPhase;
 8001276:	6922      	ldr	r2, [r4, #16]
 8001278:	615a      	str	r2, [r3, #20]
        hspi->Init.CLKPolarity       = mspi->clkPol;
 800127a:	6962      	ldr	r2, [r4, #20]
 800127c:	611a      	str	r2, [r3, #16]
        hspi->Init.CRCCalculation    = mspi->crcCal;
 800127e:	6ae2      	ldr	r2, [r4, #44]	; 0x2c
 8001280:	629a      	str	r2, [r3, #40]	; 0x28
        hspi->Init.CRCPolynomial     = mspi->crcPol;
 8001282:	6b22      	ldr	r2, [r4, #48]	; 0x30
 8001284:	62da      	str	r2, [r3, #44]	; 0x2c
        hspi->Init.CRCLength		 = mspi->crcLength;
 8001286:	6b62      	ldr	r2, [r4, #52]	; 0x34
 8001288:	631a      	str	r2, [r3, #48]	; 0x30
        hspi->Init.DataSize          = mspi->dataSize;
 800128a:	69a2      	ldr	r2, [r4, #24]
 800128c:	60da      	str	r2, [r3, #12]
        hspi->Init.FirstBit          = mspi->firstBit;
 800128e:	69e2      	ldr	r2, [r4, #28]
 8001290:	621a      	str	r2, [r3, #32]
        hspi->Init.NSS               = mspi->NSS;
 8001292:	6a22      	ldr	r2, [r4, #32]
 8001294:	619a      	str	r2, [r3, #24]
        hspi->Init.NSSPMode			 = mspi->NSSPMode;
 8001296:	6a62      	ldr	r2, [r4, #36]	; 0x24
 8001298:	635a      	str	r2, [r3, #52]	; 0x34
        hspi->Init.TIMode            = mspi->TIMMode;
 800129a:	6aa2      	ldr	r2, [r4, #40]	; 0x28
 800129c:	625a      	str	r2, [r3, #36]	; 0x24
        hspi->Init.Mode              = mspi->mode;
 800129e:	6862      	ldr	r2, [r4, #4]
 80012a0:	605a      	str	r2, [r3, #4]



#if defined(MON_SPI_TX_IT) || defined(MON_SPI_RX_IT)
		CreateQueue(&spiCBuffers[i].rxBuffer,
 80012a2:	006e      	lsls	r6, r5, #1
 80012a4:	1973      	adds	r3, r6, r5
 80012a6:	00d8      	lsls	r0, r3, #3
 80012a8:	4f0c      	ldr	r7, [pc, #48]	; (80012dc <spiInit+0x8c>)
 80012aa:	f8b4 2040 	ldrh.w	r2, [r4, #64]	; 0x40
 80012ae:	6c61      	ldr	r1, [r4, #68]	; 0x44
 80012b0:	4438      	add	r0, r7
 80012b2:	f7ff fb77 	bl	80009a4 <CreateQueue>
                SPIInstanceMap[i].rxBufferPtr,
                SPIInstanceMap[i].rxBufferSize);

		CreateQueue(&spiCBuffers[i].txBuffer,
 80012b6:	442e      	add	r6, r5
 80012b8:	00f0      	lsls	r0, r6, #3
 80012ba:	3008      	adds	r0, #8
 80012bc:	4438      	add	r0, r7
 80012be:	8f22      	ldrh	r2, [r4, #56]	; 0x38
 80012c0:	6be1      	ldr	r1, [r4, #60]	; 0x3c
 80012c2:	3004      	adds	r0, #4
 80012c4:	f7ff fb6e 	bl	80009a4 <CreateQueue>
    for(i=0; i<NUM_OF_SPI; i++) {
 80012c8:	3501      	adds	r5, #1
 80012ca:	b2ed      	uxtb	r5, r5
 80012cc:	2d01      	cmp	r5, #1
 80012ce:	d9c2      	bls.n	8001256 <spiInit+0x6>
                SPIInstanceMap[i].txBufferSize);
#endif
    }

    return result;
}
 80012d0:	2000      	movs	r0, #0
 80012d2:	bdf8      	pop	{r3, r4, r5, r6, r7, pc}
 80012d4:	08003830 	.word	0x08003830
 80012d8:	200000fc 	.word	0x200000fc
 80012dc:	200001c4 	.word	0x200001c4

080012e0 <spiStart>:
 * @brief  Star the SPI handler. Called after init, sets up the microcontroller
 *         to work with SPI
 * @return RET_OK or RET_FAIL
 ****************************************************************************/
eError spiStart(void)
{
 80012e0:	b538      	push	{r3, r4, r5, lr}
    uint8_t i;
    SPI_HandleTypeDef*  hspi;  //HAL spi

    for(i=0; i<NUM_OF_SPI; i++) {
 80012e2:	2400      	movs	r4, #0
 80012e4:	e001      	b.n	80012ea <spiStart+0xa>
 80012e6:	3401      	adds	r4, #1
 80012e8:	b2e4      	uxtb	r4, r4
 80012ea:	2c01      	cmp	r4, #1
 80012ec:	d81e      	bhi.n	800132c <spiStart+0x4c>
        hspi = &ST_SpiHandlers[i];
 80012ee:	4b10      	ldr	r3, [pc, #64]	; (8001330 <spiStart+0x50>)
 80012f0:	2564      	movs	r5, #100	; 0x64
 80012f2:	fb05 3504 	mla	r5, r5, r4, r3
        HAL_SPI_DeInit(hspi);
 80012f6:	4628      	mov	r0, r5
 80012f8:	f001 f9a0 	bl	800263c <HAL_SPI_DeInit>
        HAL_SPI_Init(hspi);
 80012fc:	4628      	mov	r0, r5
 80012fe:	f001 f945 	bl	800258c <HAL_SPI_Init>
        /* Configure Generic communication so we can use the HAL
        * IRQ functions to retrieve the data, but not use the HAL_RECEIVE_IT
        * functions since we'll set the RXNE interrupt. We are using here a
        * halRxSlaveBuffer to configure the ST HAL, but we'll be using our own buffers
        * */
        if(SPIInstanceMap[i].mode == SPI_MODE_SLAVE){
 8001302:	eb04 0384 	add.w	r3, r4, r4, lsl #2
 8001306:	011a      	lsls	r2, r3, #4
 8001308:	4b0a      	ldr	r3, [pc, #40]	; (8001334 <spiStart+0x54>)
 800130a:	4413      	add	r3, r2
 800130c:	685b      	ldr	r3, [r3, #4]
 800130e:	2b00      	cmp	r3, #0
 8001310:	d1e9      	bne.n	80012e6 <spiStart+0x6>
            HAL_SPI_Receive_IT(hspi, halRxSlaveBuffer[i], SPIInstanceMap[i].rxBufferSize);
 8001312:	eb04 0184 	add.w	r1, r4, r4, lsl #2
 8001316:	4b07      	ldr	r3, [pc, #28]	; (8001334 <spiStart+0x54>)
 8001318:	eb03 1301 	add.w	r3, r3, r1, lsl #4
 800131c:	f8b3 2040 	ldrh.w	r2, [r3, #64]	; 0x40
 8001320:	4b05      	ldr	r3, [pc, #20]	; (8001338 <spiStart+0x58>)
 8001322:	4419      	add	r1, r3
 8001324:	4628      	mov	r0, r5
 8001326:	f001 fa1b 	bl	8002760 <HAL_SPI_Receive_IT>
 800132a:	e7dc      	b.n	80012e6 <spiStart+0x6>
        }
    }

    return RET_OK;
}
 800132c:	2000      	movs	r0, #0
 800132e:	bd38      	pop	{r3, r4, r5, pc}
 8001330:	200000fc 	.word	0x200000fc
 8001334:	08003830 	.word	0x08003830
 8001338:	200001f4 	.word	0x200001f4

0800133c <HAL_UART_MspInit>:
 * @brief HAL callback for UART initialization. Starts the clocks
 * @todo Also starts interrupts, but it's not supposed to do so
 * @param huart ST Huart handler
 */
void HAL_UART_MspInit(UART_HandleTypeDef *huart)
{
 800133c:	b082      	sub	sp, #8
    if(huart->Instance == USART1){
 800133e:	6803      	ldr	r3, [r0, #0]
 8001340:	4a11      	ldr	r2, [pc, #68]	; (8001388 <HAL_UART_MspInit+0x4c>)
 8001342:	4293      	cmp	r3, r2
 8001344:	d004      	beq.n	8001350 <HAL_UART_MspInit+0x14>
        __HAL_RCC_USART1_CLK_ENABLE();
    }
    else if (huart->Instance == USART2){
 8001346:	4a11      	ldr	r2, [pc, #68]	; (800138c <HAL_UART_MspInit+0x50>)
 8001348:	4293      	cmp	r3, r2
 800134a:	d00c      	beq.n	8001366 <HAL_UART_MspInit+0x2a>

#if defined(MON_UART_RX_IT)
    /* Enable the UART Data Register not empty Interrupt. ALWAYS ENABLED */
    __HAL_UART_ENABLE_IT(huart, UART_IT_RXNE);
#endif
}
 800134c:	b002      	add	sp, #8
 800134e:	4770      	bx	lr
        __HAL_RCC_USART1_CLK_ENABLE();
 8001350:	4b0f      	ldr	r3, [pc, #60]	; (8001390 <HAL_UART_MspInit+0x54>)
 8001352:	6e1a      	ldr	r2, [r3, #96]	; 0x60
 8001354:	f442 4280 	orr.w	r2, r2, #16384	; 0x4000
 8001358:	661a      	str	r2, [r3, #96]	; 0x60
 800135a:	6e1b      	ldr	r3, [r3, #96]	; 0x60
 800135c:	f403 4380 	and.w	r3, r3, #16384	; 0x4000
 8001360:	9300      	str	r3, [sp, #0]
 8001362:	9b00      	ldr	r3, [sp, #0]
 8001364:	e009      	b.n	800137a <HAL_UART_MspInit+0x3e>
        __HAL_RCC_USART2_CLK_ENABLE();
 8001366:	4b0a      	ldr	r3, [pc, #40]	; (8001390 <HAL_UART_MspInit+0x54>)
 8001368:	6d9a      	ldr	r2, [r3, #88]	; 0x58
 800136a:	f442 3200 	orr.w	r2, r2, #131072	; 0x20000
 800136e:	659a      	str	r2, [r3, #88]	; 0x58
 8001370:	6d9b      	ldr	r3, [r3, #88]	; 0x58
 8001372:	f403 3300 	and.w	r3, r3, #131072	; 0x20000
 8001376:	9301      	str	r3, [sp, #4]
 8001378:	9b01      	ldr	r3, [sp, #4]
    __HAL_UART_ENABLE_IT(huart, UART_IT_RXNE);
 800137a:	6802      	ldr	r2, [r0, #0]
 800137c:	6813      	ldr	r3, [r2, #0]
 800137e:	f043 0320 	orr.w	r3, r3, #32
 8001382:	6013      	str	r3, [r2, #0]
 8001384:	e7e2      	b.n	800134c <HAL_UART_MspInit+0x10>
 8001386:	bf00      	nop
 8001388:	40013800 	.word	0x40013800
 800138c:	40004400 	.word	0x40004400
 8001390:	40021000 	.word	0x40021000

08001394 <HAL_UART_MspDeInit>:
  * @param huart: UART handle pointer
  * @retval None
  */
void HAL_UART_MspDeInit(UART_HandleTypeDef *huart)
{
    if(huart->Instance == USART1){
 8001394:	6803      	ldr	r3, [r0, #0]
 8001396:	4a0d      	ldr	r2, [pc, #52]	; (80013cc <HAL_UART_MspDeInit+0x38>)
 8001398:	4293      	cmp	r3, r2
 800139a:	d003      	beq.n	80013a4 <HAL_UART_MspDeInit+0x10>
        __HAL_RCC_USART1_FORCE_RESET();
        __HAL_RCC_USART1_RELEASE_RESET();
    }
    else if (huart->Instance == USART2){
 800139c:	4a0c      	ldr	r2, [pc, #48]	; (80013d0 <HAL_UART_MspDeInit+0x3c>)
 800139e:	4293      	cmp	r3, r2
 80013a0:	d00a      	beq.n	80013b8 <HAL_UART_MspDeInit+0x24>
 80013a2:	4770      	bx	lr
        __HAL_RCC_USART1_FORCE_RESET();
 80013a4:	4b0b      	ldr	r3, [pc, #44]	; (80013d4 <HAL_UART_MspDeInit+0x40>)
 80013a6:	6c1a      	ldr	r2, [r3, #64]	; 0x40
 80013a8:	f442 4280 	orr.w	r2, r2, #16384	; 0x4000
 80013ac:	641a      	str	r2, [r3, #64]	; 0x40
        __HAL_RCC_USART1_RELEASE_RESET();
 80013ae:	6c1a      	ldr	r2, [r3, #64]	; 0x40
 80013b0:	f422 4280 	bic.w	r2, r2, #16384	; 0x4000
 80013b4:	641a      	str	r2, [r3, #64]	; 0x40
 80013b6:	4770      	bx	lr
        __HAL_RCC_USART2_FORCE_RESET();
 80013b8:	4b06      	ldr	r3, [pc, #24]	; (80013d4 <HAL_UART_MspDeInit+0x40>)
 80013ba:	6b9a      	ldr	r2, [r3, #56]	; 0x38
 80013bc:	f442 3200 	orr.w	r2, r2, #131072	; 0x20000
 80013c0:	639a      	str	r2, [r3, #56]	; 0x38
        __HAL_RCC_USART2_RELEASE_RESET();
 80013c2:	6b9a      	ldr	r2, [r3, #56]	; 0x38
 80013c4:	f422 3200 	bic.w	r2, r2, #131072	; 0x20000
 80013c8:	639a      	str	r2, [r3, #56]	; 0x38
    else if (huart->Instance == USART6){
        __HAL_RCC_USART6_FORCE_RESET();
        __HAL_RCC_USART6_RELEASE_RESET();
    }
#endif
}
 80013ca:	e7ea      	b.n	80013a2 <HAL_UART_MspDeInit+0xe>
 80013cc:	40013800 	.word	0x40013800
 80013d0:	40004400 	.word	0x40004400
 80013d4:	40021000 	.word	0x40021000

080013d8 <HAL_UART_TxCpltCallback>:
  * @brief  Tx Half Transfer completed callbacks.
  * @param  huart: pointer to a UART_HandleTypeDef structure that contains
  *                the configuration information for the specified UART module.
****************************************************************************/
void HAL_UART_TxCpltCallback(UART_HandleTypeDef *huart)
{
 80013d8:	b510      	push	{r4, lr}
 80013da:	b082      	sub	sp, #8
	uint8_t byte;
	if ( GetQueuePendingBytes(&uartCBuffers[uartPortIrq].txBuffer) != 0)
 80013dc:	4b1a      	ldr	r3, [pc, #104]	; (8001448 <HAL_UART_TxCpltCallback+0x70>)
 80013de:	f993 3000 	ldrsb.w	r3, [r3]
 80013e2:	eb03 0343 	add.w	r3, r3, r3, lsl #1
 80013e6:	00d8      	lsls	r0, r3, #3
 80013e8:	3008      	adds	r0, #8
 80013ea:	4b18      	ldr	r3, [pc, #96]	; (800144c <HAL_UART_TxCpltCallback+0x74>)
 80013ec:	4418      	add	r0, r3
 80013ee:	3004      	adds	r0, #4
 80013f0:	f7ff fb0c 	bl	8000a0c <GetQueuePendingBytes>
 80013f4:	b968      	cbnz	r0, 8001412 <HAL_UART_TxCpltCallback+0x3a>
		 byte = (uint8_t)(GetQueueByte(&uartCBuffers[uartPortIrq].txBuffer) & (uint8_t)0xFF);
		 HAL_UART_Transmit_IT(&ST_UartHandlers[uartPortIrq], &byte, 1);
	}
	else
	{
		 __HAL_UART_DISABLE_IT(&ST_UartHandlers[uartPortIrq], UART_IT_TXE);
 80013f6:	4b14      	ldr	r3, [pc, #80]	; (8001448 <HAL_UART_TxCpltCallback+0x70>)
 80013f8:	f993 3000 	ldrsb.w	r3, [r3]
 80013fc:	ebc3 1303 	rsb	r3, r3, r3, lsl #4
 8001400:	00da      	lsls	r2, r3, #3
 8001402:	4b13      	ldr	r3, [pc, #76]	; (8001450 <HAL_UART_TxCpltCallback+0x78>)
 8001404:	589a      	ldr	r2, [r3, r2]
 8001406:	6813      	ldr	r3, [r2, #0]
 8001408:	f023 0380 	bic.w	r3, r3, #128	; 0x80
 800140c:	6013      	str	r3, [r2, #0]
	}
}
 800140e:	b002      	add	sp, #8
 8001410:	bd10      	pop	{r4, pc}
		 byte = (uint8_t)(GetQueueByte(&uartCBuffers[uartPortIrq].txBuffer) & (uint8_t)0xFF);
 8001412:	4c0d      	ldr	r4, [pc, #52]	; (8001448 <HAL_UART_TxCpltCallback+0x70>)
 8001414:	f994 3000 	ldrsb.w	r3, [r4]
 8001418:	eb03 0343 	add.w	r3, r3, r3, lsl #1
 800141c:	00d8      	lsls	r0, r3, #3
 800141e:	3008      	adds	r0, #8
 8001420:	4b0a      	ldr	r3, [pc, #40]	; (800144c <HAL_UART_TxCpltCallback+0x74>)
 8001422:	4418      	add	r0, r3
 8001424:	3004      	adds	r0, #4
 8001426:	f7ff fadb 	bl	80009e0 <GetQueueByte>
 800142a:	a902      	add	r1, sp, #8
 800142c:	f801 0d01 	strb.w	r0, [r1, #-1]!
		 HAL_UART_Transmit_IT(&ST_UartHandlers[uartPortIrq], &byte, 1);
 8001430:	f994 3000 	ldrsb.w	r3, [r4]
 8001434:	ebc3 1303 	rsb	r3, r3, r3, lsl #4
 8001438:	00d8      	lsls	r0, r3, #3
 800143a:	2201      	movs	r2, #1
 800143c:	4b04      	ldr	r3, [pc, #16]	; (8001450 <HAL_UART_TxCpltCallback+0x78>)
 800143e:	4418      	add	r0, r3
 8001440:	f001 fc24 	bl	8002c8c <HAL_UART_Transmit_IT>
 8001444:	e7e3      	b.n	800140e <HAL_UART_TxCpltCallback+0x36>
 8001446:	bf00      	nop
 8001448:	20000073 	.word	0x20000073
 800144c:	200003fc 	.word	0x200003fc
 8001450:	2000041c 	.word	0x2000041c

08001454 <HAL_UART_RxCpltCallback>:
 * @brief  Rx Transfer completed callback.
 * @param  huart: pointer to a UART_HandleTypeDef structure that contains
 *                the configuration information for the specified UART module.
 ****************************************************************************/
void HAL_UART_RxCpltCallback(UART_HandleTypeDef *huart)
{
 8001454:	b510      	push	{r4, lr}
 8001456:	4604      	mov	r4, r0
	const tUartInstanceMap* muart; //Montseny handler

	muart = &UARTInstanceMap[uartPortIrq];
 8001458:	4b16      	ldr	r3, [pc, #88]	; (80014b4 <HAL_UART_RxCpltCallback+0x60>)
 800145a:	f993 2000 	ldrsb.w	r2, [r3]

	//IF callback defined use it. Otherwise, default behaviour
	if(muart->rxCallback != NULL){
 800145e:	232c      	movs	r3, #44	; 0x2c
 8001460:	4915      	ldr	r1, [pc, #84]	; (80014b8 <HAL_UART_RxCpltCallback+0x64>)
 8001462:	fb03 1302 	mla	r3, r3, r2, r1
 8001466:	6a5b      	ldr	r3, [r3, #36]	; 0x24
 8001468:	b143      	cbz	r3, 800147c <HAL_UART_RxCpltCallback+0x28>
		muart->rxCallback(byteRxBuffer);
 800146a:	4a14      	ldr	r2, [pc, #80]	; (80014bc <HAL_UART_RxCpltCallback+0x68>)
 800146c:	7810      	ldrb	r0, [r2, #0]
 800146e:	4798      	blx	r3
		else{
			uartStatus[uartPortIrq] = RET_BUFFER_FULL;
		}
	}

	 HAL_UART_Receive_IT(huart, &byteRxBuffer, 1 );
 8001470:	2201      	movs	r2, #1
 8001472:	4912      	ldr	r1, [pc, #72]	; (80014bc <HAL_UART_RxCpltCallback+0x68>)
 8001474:	4620      	mov	r0, r4
 8001476:	f001 fc45 	bl	8002d04 <HAL_UART_Receive_IT>
 800147a:	bd10      	pop	{r4, pc}
		if(GetQueueFreeBytes(&uartCBuffers[uartPortIrq].rxBuffer) > 0){
 800147c:	eb02 0242 	add.w	r2, r2, r2, lsl #1
 8001480:	00d3      	lsls	r3, r2, #3
 8001482:	480f      	ldr	r0, [pc, #60]	; (80014c0 <HAL_UART_RxCpltCallback+0x6c>)
 8001484:	4418      	add	r0, r3
 8001486:	f7ff fac3 	bl	8000a10 <GetQueueFreeBytes>
 800148a:	b930      	cbnz	r0, 800149a <HAL_UART_RxCpltCallback+0x46>
			uartStatus[uartPortIrq] = RET_BUFFER_FULL;
 800148c:	4b09      	ldr	r3, [pc, #36]	; (80014b4 <HAL_UART_RxCpltCallback+0x60>)
 800148e:	f993 3000 	ldrsb.w	r3, [r3]
 8001492:	2108      	movs	r1, #8
 8001494:	4a0b      	ldr	r2, [pc, #44]	; (80014c4 <HAL_UART_RxCpltCallback+0x70>)
 8001496:	54d1      	strb	r1, [r2, r3]
 8001498:	e7ea      	b.n	8001470 <HAL_UART_RxCpltCallback+0x1c>
			AddQueueByte(&uartCBuffers[uartPortIrq].rxBuffer, byteRxBuffer);
 800149a:	4b06      	ldr	r3, [pc, #24]	; (80014b4 <HAL_UART_RxCpltCallback+0x60>)
 800149c:	f993 3000 	ldrsb.w	r3, [r3]
 80014a0:	eb03 0343 	add.w	r3, r3, r3, lsl #1
 80014a4:	00da      	lsls	r2, r3, #3
 80014a6:	4b05      	ldr	r3, [pc, #20]	; (80014bc <HAL_UART_RxCpltCallback+0x68>)
 80014a8:	7819      	ldrb	r1, [r3, #0]
 80014aa:	4805      	ldr	r0, [pc, #20]	; (80014c0 <HAL_UART_RxCpltCallback+0x6c>)
 80014ac:	4410      	add	r0, r2
 80014ae:	f7ff fa80 	bl	80009b2 <AddQueueByte>
 80014b2:	e7dd      	b.n	8001470 <HAL_UART_RxCpltCallback+0x1c>
 80014b4:	20000073 	.word	0x20000073
 80014b8:	080038d0 	.word	0x080038d0
 80014bc:	20000494 	.word	0x20000494
 80014c0:	200003fc 	.word	0x200003fc
 80014c4:	20000414 	.word	0x20000414

080014c8 <uartDriverMainIRQHandler>:
/*************************************************************************//**
 * @brief  Callback Handler for the UART interrupt.
 * @param  uartPort Which port caused the interrupt
 ****************************************************************************/
void uartDriverMainIRQHandler(tUart uartPort)
{
 80014c8:	b508      	push	{r3, lr}
    UART_HandleTypeDef* huart; //HAL Uart

    huart = &ST_UartHandlers[uartPort];
 80014ca:	ebc0 1200 	rsb	r2, r0, r0, lsl #4
 80014ce:	00d3      	lsls	r3, r2, #3
    uartPortIrq = uartPort;
 80014d0:	4a03      	ldr	r2, [pc, #12]	; (80014e0 <uartDriverMainIRQHandler+0x18>)
 80014d2:	7010      	strb	r0, [r2, #0]
    HAL_UART_IRQHandler(huart);
 80014d4:	4803      	ldr	r0, [pc, #12]	; (80014e4 <uartDriverMainIRQHandler+0x1c>)
 80014d6:	4418      	add	r0, r3
 80014d8:	f001 fcf0 	bl	8002ebc <HAL_UART_IRQHandler>
 80014dc:	bd08      	pop	{r3, pc}
 80014de:	bf00      	nop
 80014e0:	20000073 	.word	0x20000073
 80014e4:	2000041c 	.word	0x2000041c

080014e8 <HAL_UART_ErrorCallback>:
/*************************************************************************//**
 * @brief  Callback Handler for Errors in UART.
 * @param  huart Which port caused the interrupt
 ****************************************************************************/
void HAL_UART_ErrorCallback(UART_HandleTypeDef *huart)
{
 80014e8:	4770      	bx	lr
	...

080014ec <uartInit>:
 * 		   Initializes all UART declared on UART_map list
 *
 * @return  None.
 ****************************************************************************/
eError uartInit(void)
{
 80014ec:	b5f8      	push	{r3, r4, r5, r6, r7, lr}
    eError result = RET_OK;
    UART_HandleTypeDef* huart;  //ST handler
    const tUartInstanceMap* muart;  //Montseny handler
    uint8_t i;

    for(i=0; i<NUM_OF_UART; i++) {
 80014ee:	2400      	movs	r4, #0
 80014f0:	b10c      	cbz	r4, 80014f6 <uartInit+0xa>




    return result;
}
 80014f2:	2000      	movs	r0, #0
 80014f4:	bdf8      	pop	{r3, r4, r5, r6, r7, pc}
        huart->Instance        = muart->port;
 80014f6:	4a17      	ldr	r2, [pc, #92]	; (8001554 <uartInit+0x68>)
 80014f8:	232c      	movs	r3, #44	; 0x2c
 80014fa:	fb03 f304 	mul.w	r3, r3, r4
 80014fe:	18d5      	adds	r5, r2, r3
 8001500:	58d0      	ldr	r0, [r2, r3]
 8001502:	4915      	ldr	r1, [pc, #84]	; (8001558 <uartInit+0x6c>)
 8001504:	0123      	lsls	r3, r4, #4
 8001506:	1b1b      	subs	r3, r3, r4
 8001508:	00da      	lsls	r2, r3, #3
 800150a:	188b      	adds	r3, r1, r2
 800150c:	5088      	str	r0, [r1, r2]
        huart->Init.BaudRate   = muart->baudRate;
 800150e:	686a      	ldr	r2, [r5, #4]
 8001510:	605a      	str	r2, [r3, #4]
        huart->Init.WordLength = muart->dataSize;
 8001512:	7a2a      	ldrb	r2, [r5, #8]
 8001514:	609a      	str	r2, [r3, #8]
        huart->Init.StopBits   = muart->stopBits;
 8001516:	7aaa      	ldrb	r2, [r5, #10]
 8001518:	60da      	str	r2, [r3, #12]
        huart->Init.Parity     = muart->parity;
 800151a:	7a6a      	ldrb	r2, [r5, #9]
 800151c:	611a      	str	r2, [r3, #16]
        huart->Init.HwFlowCtl  = UART_HWCONTROL_NONE;
 800151e:	2200      	movs	r2, #0
 8001520:	619a      	str	r2, [r3, #24]
        huart->Init.Mode       = UART_MODE_TX_RX;
 8001522:	210c      	movs	r1, #12
 8001524:	6159      	str	r1, [r3, #20]
        huart->Init.OverSampling = UART_OVERSAMPLING_16;
 8001526:	61da      	str	r2, [r3, #28]
		CreateQueue(&uartCBuffers[i].rxBuffer,
 8001528:	0066      	lsls	r6, r4, #1
 800152a:	1933      	adds	r3, r6, r4
 800152c:	00d8      	lsls	r0, r3, #3
 800152e:	4f0b      	ldr	r7, [pc, #44]	; (800155c <uartInit+0x70>)
 8001530:	8aaa      	ldrh	r2, [r5, #20]
 8001532:	69a9      	ldr	r1, [r5, #24]
 8001534:	4438      	add	r0, r7
 8001536:	f7ff fa35 	bl	80009a4 <CreateQueue>
		CreateQueue(&uartCBuffers[i].txBuffer,
 800153a:	4426      	add	r6, r4
 800153c:	00f0      	lsls	r0, r6, #3
 800153e:	3008      	adds	r0, #8
 8001540:	4438      	add	r0, r7
 8001542:	89aa      	ldrh	r2, [r5, #12]
 8001544:	6929      	ldr	r1, [r5, #16]
 8001546:	3004      	adds	r0, #4
 8001548:	f7ff fa2c 	bl	80009a4 <CreateQueue>
    for(i=0; i<NUM_OF_UART; i++) {
 800154c:	3401      	adds	r4, #1
 800154e:	b2e4      	uxtb	r4, r4
 8001550:	e7ce      	b.n	80014f0 <uartInit+0x4>
 8001552:	bf00      	nop
 8001554:	080038d0 	.word	0x080038d0
 8001558:	2000041c 	.word	0x2000041c
 800155c:	200003fc 	.word	0x200003fc

08001560 <uartStart>:
/*************************************************************************//**
 * @brief  Starts UART driver.
 * @return  None.
 ****************************************************************************/
eError uartStart(void)
{
 8001560:	b538      	push	{r3, r4, r5, lr}
    eError result = RET_OK;
    uint8_t i;
    UART_HandleTypeDef* huart;

    for(i=0; i<NUM_OF_UART; i++){
 8001562:	2400      	movs	r4, #0
 8001564:	b10c      	cbz	r4, 800156a <uartStart+0xa>
#if defined(MON_UART_RX_IT) || defined(MON_UART_RX_DMA)
        HAL_UART_Receive_IT(huart, &byteRxBuffer, 1 );
#endif
    }

    return result;
 8001566:	2000      	movs	r0, #0
 8001568:	bd38      	pop	{r3, r4, r5, pc}
        huart = &ST_UartHandlers[i];
 800156a:	ebc4 1304 	rsb	r3, r4, r4, lsl #4
 800156e:	00dd      	lsls	r5, r3, #3
 8001570:	4b0a      	ldr	r3, [pc, #40]	; (800159c <uartStart+0x3c>)
 8001572:	441d      	add	r5, r3
        if(HAL_UART_DeInit(huart) != HAL_OK)
 8001574:	4628      	mov	r0, r5
 8001576:	f001 fb69 	bl	8002c4c <HAL_UART_DeInit>
 800157a:	b958      	cbnz	r0, 8001594 <uartStart+0x34>
        if(HAL_UART_Init(huart) != HAL_OK)
 800157c:	4628      	mov	r0, r5
 800157e:	f002 f812 	bl	80035a6 <HAL_UART_Init>
 8001582:	b948      	cbnz	r0, 8001598 <uartStart+0x38>
        HAL_UART_Receive_IT(huart, &byteRxBuffer, 1 );
 8001584:	2201      	movs	r2, #1
 8001586:	4906      	ldr	r1, [pc, #24]	; (80015a0 <uartStart+0x40>)
 8001588:	4628      	mov	r0, r5
 800158a:	f001 fbbb 	bl	8002d04 <HAL_UART_Receive_IT>
    for(i=0; i<NUM_OF_UART; i++){
 800158e:	3401      	adds	r4, #1
 8001590:	b2e4      	uxtb	r4, r4
 8001592:	e7e7      	b.n	8001564 <uartStart+0x4>
            return RET_FAIL;
 8001594:	2001      	movs	r0, #1
 8001596:	bd38      	pop	{r3, r4, r5, pc}
            return RET_FAIL;
 8001598:	2001      	movs	r0, #1
}
 800159a:	bd38      	pop	{r3, r4, r5, pc}
 800159c:	2000041c 	.word	0x2000041c
 80015a0:	20000494 	.word	0x20000494

080015a4 <Reset_Handler>:

    .section	.text.Reset_Handler
	.weak	Reset_Handler
	.type	Reset_Handler, %function
Reset_Handler:
  ldr   sp, =_estack    /* Atollic update: set stack pointer */
 80015a4:	f8df d034 	ldr.w	sp, [pc, #52]	; 80015dc <LoopForever+0x2>

/* Copy the data segment initializers from flash to SRAM */
  movs	r1, #0
 80015a8:	2100      	movs	r1, #0
  b	LoopCopyDataInit
 80015aa:	e003      	b.n	80015b4 <LoopCopyDataInit>

080015ac <CopyDataInit>:

CopyDataInit:
	ldr	r3, =_sidata
 80015ac:	4b0c      	ldr	r3, [pc, #48]	; (80015e0 <LoopForever+0x6>)
	ldr	r3, [r3, r1]
 80015ae:	585b      	ldr	r3, [r3, r1]
	str	r3, [r0, r1]
 80015b0:	5043      	str	r3, [r0, r1]
	adds	r1, r1, #4
 80015b2:	3104      	adds	r1, #4

080015b4 <LoopCopyDataInit>:

LoopCopyDataInit:
	ldr	r0, =_sdata
 80015b4:	480b      	ldr	r0, [pc, #44]	; (80015e4 <LoopForever+0xa>)
	ldr	r3, =_edata
 80015b6:	4b0c      	ldr	r3, [pc, #48]	; (80015e8 <LoopForever+0xe>)
	adds	r2, r0, r1
 80015b8:	1842      	adds	r2, r0, r1
	cmp	r2, r3
 80015ba:	429a      	cmp	r2, r3
	bcc	CopyDataInit
 80015bc:	d3f6      	bcc.n	80015ac <CopyDataInit>
	ldr	r2, =_sbss
 80015be:	4a0b      	ldr	r2, [pc, #44]	; (80015ec <LoopForever+0x12>)
	b	LoopFillZerobss
 80015c0:	e002      	b.n	80015c8 <LoopFillZerobss>

080015c2 <FillZerobss>:
/* Zero fill the bss segment. */
FillZerobss:
	movs	r3, #0
 80015c2:	2300      	movs	r3, #0
	str	r3, [r2], #4
 80015c4:	f842 3b04 	str.w	r3, [r2], #4

080015c8 <LoopFillZerobss>:

LoopFillZerobss:
	ldr	r3, = _ebss
 80015c8:	4b09      	ldr	r3, [pc, #36]	; (80015f0 <LoopForever+0x16>)
	cmp	r2, r3
 80015ca:	429a      	cmp	r2, r3
	bcc	FillZerobss
 80015cc:	d3f9      	bcc.n	80015c2 <FillZerobss>

/* Call the clock system intitialization function.*/
    bl  SystemInit
 80015ce:	f000 f813 	bl	80015f8 <SystemInit>
/* Call static constructors */
    bl __libc_init_array
 80015d2:	f002 f81d 	bl	8003610 <__libc_init_array>
/* Call the application's entry point.*/
	bl	main
 80015d6:	f7fe ff85 	bl	80004e4 <main>

080015da <LoopForever>:

LoopForever:
    b LoopForever
 80015da:	e7fe      	b.n	80015da <LoopForever>
  ldr   sp, =_estack    /* Atollic update: set stack pointer */
 80015dc:	20020000 	.word	0x20020000
	ldr	r3, =_sidata
 80015e0:	08003954 	.word	0x08003954
	ldr	r0, =_sdata
 80015e4:	20000000 	.word	0x20000000
	ldr	r3, =_edata
 80015e8:	20000040 	.word	0x20000040
	ldr	r2, =_sbss
 80015ec:	20000040 	.word	0x20000040
	ldr	r3, = _ebss
 80015f0:	20000600 	.word	0x20000600

080015f4 <ADC1_IRQHandler>:
 * @retval : None
*/
    .section	.text.Default_Handler,"ax",%progbits
Default_Handler:
Infinite_Loop:
	b	Infinite_Loop
 80015f4:	e7fe      	b.n	80015f4 <ADC1_IRQHandler>
	...

080015f8 <SystemInit>:

void SystemInit(void)
{
  /* FPU settings ------------------------------------------------------------*/
  #if (__FPU_PRESENT == 1) && (__FPU_USED == 1)
    SCB->CPACR |= ((3UL << 10*2)|(3UL << 11*2));  /* set CP10 and CP11 Full Access */
 80015f8:	490f      	ldr	r1, [pc, #60]	; (8001638 <SystemInit+0x40>)
 80015fa:	f8d1 3088 	ldr.w	r3, [r1, #136]	; 0x88
 80015fe:	f443 0370 	orr.w	r3, r3, #15728640	; 0xf00000
 8001602:	f8c1 3088 	str.w	r3, [r1, #136]	; 0x88
  #endif

  /* Reset the RCC clock configuration to the default reset state ------------*/
  /* Set MSION bit */
  RCC->CR |= RCC_CR_MSION;
 8001606:	4b0d      	ldr	r3, [pc, #52]	; (800163c <SystemInit+0x44>)
 8001608:	681a      	ldr	r2, [r3, #0]
 800160a:	f042 0201 	orr.w	r2, r2, #1
 800160e:	601a      	str	r2, [r3, #0]

  /* Reset CFGR register */
  RCC->CFGR = 0x00000000U;
 8001610:	2000      	movs	r0, #0
 8001612:	6098      	str	r0, [r3, #8]

  /* Reset HSEON, CSSON , HSION, and PLLON bits */
  RCC->CR &= 0xEAF6FFFFU;
 8001614:	681a      	ldr	r2, [r3, #0]
 8001616:	f022 52a8 	bic.w	r2, r2, #352321536	; 0x15000000
 800161a:	f422 2210 	bic.w	r2, r2, #589824	; 0x90000
 800161e:	601a      	str	r2, [r3, #0]

  /* Reset PLLCFGR register */
  RCC->PLLCFGR = 0x00001000U;
 8001620:	f44f 5280 	mov.w	r2, #4096	; 0x1000
 8001624:	60da      	str	r2, [r3, #12]

  /* Reset HSEBYP bit */
  RCC->CR &= 0xFFFBFFFFU;
 8001626:	681a      	ldr	r2, [r3, #0]
 8001628:	f422 2280 	bic.w	r2, r2, #262144	; 0x40000
 800162c:	601a      	str	r2, [r3, #0]

  /* Disable all interrupts */
  RCC->CIER = 0x00000000U;
 800162e:	6198      	str	r0, [r3, #24]

  /* Configure the Vector Table location add offset address ------------------*/
#ifdef VECT_TAB_SRAM
  SCB->VTOR = SRAM_BASE | VECT_TAB_OFFSET; /* Vector Table Relocation in Internal SRAM */
#else
  SCB->VTOR = FLASH_BASE | VECT_TAB_OFFSET; /* Vector Table Relocation in Internal FLASH */
 8001630:	f04f 6300 	mov.w	r3, #134217728	; 0x8000000
 8001634:	608b      	str	r3, [r1, #8]
 8001636:	4770      	bx	lr
 8001638:	e000ed00 	.word	0xe000ed00
 800163c:	40021000 	.word	0x40021000

08001640 <HAL_InitTick>:
  *       implementation  in user file.
  * @param TickPriority  Tick interrupt priority.
  * @retval HAL status
  */
__weak HAL_StatusTypeDef HAL_InitTick(uint32_t TickPriority)
{
 8001640:	b510      	push	{r4, lr}
 8001642:	4604      	mov	r4, r0
  /*Configure the SysTick to have interrupt in 1ms time basis*/
  HAL_SYSTICK_Config(SystemCoreClock/1000);
 8001644:	4b07      	ldr	r3, [pc, #28]	; (8001664 <HAL_InitTick+0x24>)
 8001646:	6818      	ldr	r0, [r3, #0]
 8001648:	4b07      	ldr	r3, [pc, #28]	; (8001668 <HAL_InitTick+0x28>)
 800164a:	fba3 3000 	umull	r3, r0, r3, r0
 800164e:	0980      	lsrs	r0, r0, #6
 8001650:	f000 f858 	bl	8001704 <HAL_SYSTICK_Config>

  /*Configure the SysTick IRQ priority */
  HAL_NVIC_SetPriority(SysTick_IRQn, TickPriority ,0);
 8001654:	2200      	movs	r2, #0
 8001656:	4621      	mov	r1, r4
 8001658:	f04f 30ff 	mov.w	r0, #4294967295
 800165c:	f000 f814 	bl	8001688 <HAL_NVIC_SetPriority>

  /* Return function status */
  return HAL_OK;
}
 8001660:	2000      	movs	r0, #0
 8001662:	bd10      	pop	{r4, pc}
 8001664:	2000003c 	.word	0x2000003c
 8001668:	10624dd3 	.word	0x10624dd3

0800166c <HAL_IncTick>:
  *      implementations in user file.
  * @retval None
  */
__weak void HAL_IncTick(void)
{
  uwTick++;
 800166c:	4a02      	ldr	r2, [pc, #8]	; (8001678 <HAL_IncTick+0xc>)
 800166e:	6813      	ldr	r3, [r2, #0]
 8001670:	3301      	adds	r3, #1
 8001672:	6013      	str	r3, [r2, #0]
 8001674:	4770      	bx	lr
 8001676:	bf00      	nop
 8001678:	200005fc 	.word	0x200005fc

0800167c <HAL_GetTick>:
  *       implementations in user file.
  * @retval tick value
  */
__weak uint32_t HAL_GetTick(void)
{
  return uwTick;
 800167c:	4b01      	ldr	r3, [pc, #4]	; (8001684 <HAL_GetTick+0x8>)
 800167e:	6818      	ldr	r0, [r3, #0]
}
 8001680:	4770      	bx	lr
 8001682:	bf00      	nop
 8001684:	200005fc 	.word	0x200005fc

08001688 <HAL_NVIC_SetPriority>:
  *         This parameter can be a value between 0 and 15
  *         A lower priority value indicates a higher priority.
  * @retval None
  */
void HAL_NVIC_SetPriority(IRQn_Type IRQn, uint32_t PreemptPriority, uint32_t SubPriority)
{
 8001688:	b430      	push	{r4, r5}
  \details Reads the priority grouping field from the NVIC Interrupt Controller.
  \return                Priority grouping field (SCB->AIRCR [10:8] PRIGROUP field).
 */
__STATIC_INLINE uint32_t NVIC_GetPriorityGrouping(void)
{
  return ((uint32_t)((SCB->AIRCR & SCB_AIRCR_PRIGROUP_Msk) >> SCB_AIRCR_PRIGROUP_Pos));
 800168a:	4b16      	ldr	r3, [pc, #88]	; (80016e4 <HAL_NVIC_SetPriority+0x5c>)
 800168c:	68db      	ldr	r3, [r3, #12]
 800168e:	f3c3 2302 	ubfx	r3, r3, #8, #3
{
  uint32_t PriorityGroupTmp = (PriorityGroup & (uint32_t)0x07UL);   /* only values 0..7 are used          */
  uint32_t PreemptPriorityBits;
  uint32_t SubPriorityBits;

  PreemptPriorityBits = ((7UL - PriorityGroupTmp) > (uint32_t)(__NVIC_PRIO_BITS)) ? (uint32_t)(__NVIC_PRIO_BITS) : (uint32_t)(7UL - PriorityGroupTmp);
 8001692:	f1c3 0407 	rsb	r4, r3, #7
 8001696:	2c04      	cmp	r4, #4
 8001698:	bf28      	it	cs
 800169a:	2404      	movcs	r4, #4
  SubPriorityBits     = ((PriorityGroupTmp + (uint32_t)(__NVIC_PRIO_BITS)) < (uint32_t)7UL) ? (uint32_t)0UL : (uint32_t)((PriorityGroupTmp - 7UL) + (uint32_t)(__NVIC_PRIO_BITS));
 800169c:	1d1d      	adds	r5, r3, #4
 800169e:	2d06      	cmp	r5, #6
 80016a0:	d917      	bls.n	80016d2 <HAL_NVIC_SetPriority+0x4a>
 80016a2:	3b03      	subs	r3, #3

  return (
           ((PreemptPriority & (uint32_t)((1UL << (PreemptPriorityBits)) - 1UL)) << SubPriorityBits) |
 80016a4:	2501      	movs	r5, #1
 80016a6:	fa05 f404 	lsl.w	r4, r5, r4
 80016aa:	3c01      	subs	r4, #1
 80016ac:	4021      	ands	r1, r4
 80016ae:	4099      	lsls	r1, r3
           ((SubPriority     & (uint32_t)((1UL << (SubPriorityBits    )) - 1UL)))
 80016b0:	fa05 f303 	lsl.w	r3, r5, r3
 80016b4:	3b01      	subs	r3, #1
 80016b6:	4013      	ands	r3, r2
           ((PreemptPriority & (uint32_t)((1UL << (PreemptPriorityBits)) - 1UL)) << SubPriorityBits) |
 80016b8:	4319      	orrs	r1, r3
  if ((int32_t)(IRQn) < 0)
 80016ba:	2800      	cmp	r0, #0
 80016bc:	db0b      	blt.n	80016d6 <HAL_NVIC_SetPriority+0x4e>
    NVIC->IP[((uint32_t)(int32_t)IRQn)]               = (uint8_t)((priority << (8U - __NVIC_PRIO_BITS)) & (uint32_t)0xFFUL);
 80016be:	0109      	lsls	r1, r1, #4
 80016c0:	b2c9      	uxtb	r1, r1
 80016c2:	f100 4060 	add.w	r0, r0, #3758096384	; 0xe0000000
 80016c6:	f500 4061 	add.w	r0, r0, #57600	; 0xe100
 80016ca:	f880 1300 	strb.w	r1, [r0, #768]	; 0x300
  assert_param(IS_NVIC_PREEMPTION_PRIORITY(PreemptPriority));

  prioritygroup = NVIC_GetPriorityGrouping();

  NVIC_SetPriority(IRQn, NVIC_EncodePriority(prioritygroup, PreemptPriority, SubPriority));
}
 80016ce:	bc30      	pop	{r4, r5}
 80016d0:	4770      	bx	lr
  SubPriorityBits     = ((PriorityGroupTmp + (uint32_t)(__NVIC_PRIO_BITS)) < (uint32_t)7UL) ? (uint32_t)0UL : (uint32_t)((PriorityGroupTmp - 7UL) + (uint32_t)(__NVIC_PRIO_BITS));
 80016d2:	2300      	movs	r3, #0
 80016d4:	e7e6      	b.n	80016a4 <HAL_NVIC_SetPriority+0x1c>
    SCB->SHP[(((uint32_t)(int32_t)IRQn) & 0xFUL)-4UL] = (uint8_t)((priority << (8U - __NVIC_PRIO_BITS)) & (uint32_t)0xFFUL);
 80016d6:	f000 000f 	and.w	r0, r0, #15
 80016da:	0109      	lsls	r1, r1, #4
 80016dc:	b2c9      	uxtb	r1, r1
 80016de:	4b02      	ldr	r3, [pc, #8]	; (80016e8 <HAL_NVIC_SetPriority+0x60>)
 80016e0:	5419      	strb	r1, [r3, r0]
 80016e2:	e7f4      	b.n	80016ce <HAL_NVIC_SetPriority+0x46>
 80016e4:	e000ed00 	.word	0xe000ed00
 80016e8:	e000ed14 	.word	0xe000ed14

080016ec <HAL_NVIC_EnableIRQ>:
  NVIC->ISER[(((uint32_t)(int32_t)IRQn) >> 5UL)] = (uint32_t)(1UL << (((uint32_t)(int32_t)IRQn) & 0x1FUL));
 80016ec:	0942      	lsrs	r2, r0, #5
 80016ee:	f000 001f 	and.w	r0, r0, #31
 80016f2:	2301      	movs	r3, #1
 80016f4:	fa03 f000 	lsl.w	r0, r3, r0
 80016f8:	4b01      	ldr	r3, [pc, #4]	; (8001700 <HAL_NVIC_EnableIRQ+0x14>)
 80016fa:	f843 0022 	str.w	r0, [r3, r2, lsl #2]
 80016fe:	4770      	bx	lr
 8001700:	e000e100 	.word	0xe000e100

08001704 <HAL_SYSTICK_Config>:
           function <b>SysTick_Config</b> is not included. In this case, the file <b><i>device</i>.h</b>
           must contain a vendor-specific implementation of this function.
 */
__STATIC_INLINE uint32_t SysTick_Config(uint32_t ticks)
{
  if ((ticks - 1UL) > SysTick_LOAD_RELOAD_Msk)
 8001704:	3801      	subs	r0, #1
 8001706:	f1b0 7f80 	cmp.w	r0, #16777216	; 0x1000000
 800170a:	d20a      	bcs.n	8001722 <HAL_SYSTICK_Config+0x1e>
  {
    return (1UL);                                                   /* Reload value impossible */
  }

  SysTick->LOAD  = (uint32_t)(ticks - 1UL);                         /* set reload register */
 800170c:	4b06      	ldr	r3, [pc, #24]	; (8001728 <HAL_SYSTICK_Config+0x24>)
 800170e:	6058      	str	r0, [r3, #4]
    SCB->SHP[(((uint32_t)(int32_t)IRQn) & 0xFUL)-4UL] = (uint8_t)((priority << (8U - __NVIC_PRIO_BITS)) & (uint32_t)0xFFUL);
 8001710:	21f0      	movs	r1, #240	; 0xf0
 8001712:	4a06      	ldr	r2, [pc, #24]	; (800172c <HAL_SYSTICK_Config+0x28>)
 8001714:	f882 1023 	strb.w	r1, [r2, #35]	; 0x23
  NVIC_SetPriority (SysTick_IRQn, (1UL << __NVIC_PRIO_BITS) - 1UL); /* set Priority for Systick Interrupt */
  SysTick->VAL   = 0UL;                                             /* Load the SysTick Counter Value */
 8001718:	2000      	movs	r0, #0
 800171a:	6098      	str	r0, [r3, #8]
  SysTick->CTRL  = SysTick_CTRL_CLKSOURCE_Msk |
 800171c:	2207      	movs	r2, #7
 800171e:	601a      	str	r2, [r3, #0]
 8001720:	4770      	bx	lr
    return (1UL);                                                   /* Reload value impossible */
 8001722:	2001      	movs	r0, #1
  *                  - 1  Function failed.
  */
uint32_t HAL_SYSTICK_Config(uint32_t TicksNumb)
{
   return SysTick_Config(TicksNumb);
}
 8001724:	4770      	bx	lr
 8001726:	bf00      	nop
 8001728:	e000e010 	.word	0xe000e010
 800172c:	e000ed00 	.word	0xe000ed00

08001730 <HAL_SYSTICK_CLKSourceConfig>:
  */
void HAL_SYSTICK_CLKSourceConfig(uint32_t CLKSource)
{
  /* Check the parameters */
  assert_param(IS_SYSTICK_CLK_SOURCE(CLKSource));
  if (CLKSource == SYSTICK_CLKSOURCE_HCLK)
 8001730:	2804      	cmp	r0, #4
 8001732:	d005      	beq.n	8001740 <HAL_SYSTICK_CLKSourceConfig+0x10>
  {
    SysTick->CTRL |= SYSTICK_CLKSOURCE_HCLK;
  }
  else
  {
    SysTick->CTRL &= ~SYSTICK_CLKSOURCE_HCLK;
 8001734:	4a05      	ldr	r2, [pc, #20]	; (800174c <HAL_SYSTICK_CLKSourceConfig+0x1c>)
 8001736:	6813      	ldr	r3, [r2, #0]
 8001738:	f023 0304 	bic.w	r3, r3, #4
 800173c:	6013      	str	r3, [r2, #0]
 800173e:	4770      	bx	lr
    SysTick->CTRL |= SYSTICK_CLKSOURCE_HCLK;
 8001740:	4a02      	ldr	r2, [pc, #8]	; (800174c <HAL_SYSTICK_CLKSourceConfig+0x1c>)
 8001742:	6813      	ldr	r3, [r2, #0]
 8001744:	f043 0304 	orr.w	r3, r3, #4
 8001748:	6013      	str	r3, [r2, #0]
 800174a:	4770      	bx	lr
 800174c:	e000e010 	.word	0xe000e010

08001750 <HAL_SYSTICK_IRQHandler>:
/**
  * @brief  Handle SYSTICK interrupt request.
  * @retval None
  */
void HAL_SYSTICK_IRQHandler(void)
{
 8001750:	b508      	push	{r3, lr}
  HAL_SYSTICK_Callback();
 8001752:	f7ff fbae 	bl	8000eb2 <HAL_SYSTICK_Callback>
 8001756:	bd08      	pop	{r3, pc}

08001758 <HAL_DMA_Abort_IT>:
  * @param  hdma  : pointer to a DMA_HandleTypeDef structure that contains
  *                 the configuration information for the specified DMA Channel.
  * @retval HAL status
  */
HAL_StatusTypeDef HAL_DMA_Abort_IT(DMA_HandleTypeDef *hdma)
{
 8001758:	b508      	push	{r3, lr}
  HAL_StatusTypeDef status = HAL_OK;

  if(HAL_DMA_STATE_BUSY != hdma->State)
 800175a:	f890 3025 	ldrb.w	r3, [r0, #37]	; 0x25
 800175e:	b2db      	uxtb	r3, r3
 8001760:	2b02      	cmp	r3, #2
 8001762:	d003      	beq.n	800176c <HAL_DMA_Abort_IT+0x14>
  {
    /* no transfer ongoing */
    hdma->ErrorCode = HAL_DMA_ERROR_NO_XFER;
 8001764:	2304      	movs	r3, #4
 8001766:	63c3      	str	r3, [r0, #60]	; 0x3c

    status = HAL_ERROR;
 8001768:	2001      	movs	r0, #1
 800176a:	bd08      	pop	{r3, pc}
  }
  else
  {
    /* Disable DMA IT */
    __HAL_DMA_DISABLE_IT(hdma, (DMA_IT_TC | DMA_IT_HT | DMA_IT_TE));
 800176c:	6802      	ldr	r2, [r0, #0]
 800176e:	6813      	ldr	r3, [r2, #0]
 8001770:	f023 030e 	bic.w	r3, r3, #14
 8001774:	6013      	str	r3, [r2, #0]

    /* Disable the channel */
    __HAL_DMA_DISABLE(hdma);
 8001776:	6802      	ldr	r2, [r0, #0]
 8001778:	6813      	ldr	r3, [r2, #0]
 800177a:	f023 0301 	bic.w	r3, r3, #1
 800177e:	6013      	str	r3, [r2, #0]
      hdma->DMAmuxRequestGenStatus->RGCFR = hdma->DMAmuxRequestGenStatusMask;
    }

#else
    /* Clear all flags */
    hdma->DmaBaseAddress->IFCR = (DMA_ISR_GIF1 << hdma->ChannelIndex);
 8001780:	6c01      	ldr	r1, [r0, #64]	; 0x40
 8001782:	6c43      	ldr	r3, [r0, #68]	; 0x44
 8001784:	2201      	movs	r2, #1
 8001786:	fa02 f303 	lsl.w	r3, r2, r3
 800178a:	604b      	str	r3, [r1, #4]
#endif /* DMAMUX1 */

    /* Change the DMA state */
    hdma->State = HAL_DMA_STATE_READY;
 800178c:	f880 2025 	strb.w	r2, [r0, #37]	; 0x25

    /* Process Unlocked */
    __HAL_UNLOCK(hdma);
 8001790:	2300      	movs	r3, #0
 8001792:	f880 3024 	strb.w	r3, [r0, #36]	; 0x24

    /* Call User Abort callback */
    if(hdma->XferAbortCallback != NULL)
 8001796:	6b83      	ldr	r3, [r0, #56]	; 0x38
 8001798:	b113      	cbz	r3, 80017a0 <HAL_DMA_Abort_IT+0x48>
    {
      hdma->XferAbortCallback(hdma);
 800179a:	4798      	blx	r3
  HAL_StatusTypeDef status = HAL_OK;
 800179c:	2000      	movs	r0, #0
 800179e:	bd08      	pop	{r3, pc}
 80017a0:	2000      	movs	r0, #0
    }
  }
  return status;
}
 80017a2:	bd08      	pop	{r3, pc}

080017a4 <HAL_GPIO_Init>:
  * @param  GPIO_Init: pointer to a GPIO_InitTypeDef structure that contains
  *         the configuration information for the specified GPIO peripheral.
  * @retval None
  */
void HAL_GPIO_Init(GPIO_TypeDef  *GPIOx, GPIO_InitTypeDef *GPIO_Init)
{
 80017a4:	b5f0      	push	{r4, r5, r6, r7, lr}
 80017a6:	b083      	sub	sp, #12
  uint32_t position = 0x00;
 80017a8:	2300      	movs	r3, #0
  assert_param(IS_GPIO_PIN(GPIO_Init->Pin));
  assert_param(IS_GPIO_MODE(GPIO_Init->Mode));
  assert_param(IS_GPIO_PULL(GPIO_Init->Pull));

  /* Configure the port pins */
  while (((GPIO_Init->Pin) >> position) != RESET)
 80017aa:	e08c      	b.n	80018c6 <HAL_GPIO_Init+0x122>
        /* Check the Alternate function parameters */
        assert_param(IS_GPIO_AF_INSTANCE(GPIOx));
        assert_param(IS_GPIO_AF(GPIO_Init->Alternate));
        
        /* Configure Alternate function mapped with the current IO */
        temp = GPIOx->AFR[position >> 3];
 80017ac:	08de      	lsrs	r6, r3, #3
 80017ae:	3608      	adds	r6, #8
 80017b0:	f850 4026 	ldr.w	r4, [r0, r6, lsl #2]
        temp &= ~((uint32_t)0xF << ((uint32_t)(position & (uint32_t)0x07) * 4)) ;
 80017b4:	f003 0e07 	and.w	lr, r3, #7
 80017b8:	ea4f 0e8e 	mov.w	lr, lr, lsl #2
 80017bc:	270f      	movs	r7, #15
 80017be:	fa07 f70e 	lsl.w	r7, r7, lr
 80017c2:	ea24 0407 	bic.w	r4, r4, r7
        temp |= ((uint32_t)(GPIO_Init->Alternate) << (((uint32_t)position & (uint32_t)0x07) * 4));
 80017c6:	690f      	ldr	r7, [r1, #16]
 80017c8:	fa07 f70e 	lsl.w	r7, r7, lr
 80017cc:	433c      	orrs	r4, r7
        GPIOx->AFR[position >> 3] = temp;
 80017ce:	f840 4026 	str.w	r4, [r0, r6, lsl #2]
 80017d2:	e087      	b.n	80018e4 <HAL_GPIO_Init+0x140>
         (GPIO_Init->Mode == GPIO_MODE_OUTPUT_OD) || (GPIO_Init->Mode == GPIO_MODE_AF_OD))
      {
        /* Check the Speed parameter */
        assert_param(IS_GPIO_SPEED(GPIO_Init->Speed));
        /* Configure the IO Speed */
        temp = GPIOx->OSPEEDR;
 80017d4:	6886      	ldr	r6, [r0, #8]
        temp &= ~(GPIO_OSPEEDR_OSPEED0 << (position * 2));
 80017d6:	4026      	ands	r6, r4
        temp |= (GPIO_Init->Speed << (position * 2));
 80017d8:	68cf      	ldr	r7, [r1, #12]
 80017da:	fa07 f70e 	lsl.w	r7, r7, lr
 80017de:	433e      	orrs	r6, r7
        GPIOx->OSPEEDR = temp;
 80017e0:	6086      	str	r6, [r0, #8]

        /* Configure the IO Output Type */
        temp = GPIOx->OTYPER;
 80017e2:	6846      	ldr	r6, [r0, #4]
        temp &= ~(GPIO_OTYPER_OT0 << position) ;
 80017e4:	ea26 0505 	bic.w	r5, r6, r5
        temp |= (((GPIO_Init->Mode & GPIO_OUTPUT_TYPE) >> 4) << position);
 80017e8:	684e      	ldr	r6, [r1, #4]
 80017ea:	f3c6 1600 	ubfx	r6, r6, #4, #1
 80017ee:	409e      	lsls	r6, r3
 80017f0:	4335      	orrs	r5, r6
        GPIOx->OTYPER = temp;
 80017f2:	6045      	str	r5, [r0, #4]
      }

#endif /* STM32L471xx || STM32L475xx || STM32L476xx || STM32L485xx || STM32L486xx */

      /* Activate the Pull-up or Pull down resistor for the current IO */
      temp = GPIOx->PUPDR;
 80017f4:	68c5      	ldr	r5, [r0, #12]
      temp &= ~(GPIO_PUPDR_PUPD0 << (position * 2));
 80017f6:	402c      	ands	r4, r5
      temp |= ((GPIO_Init->Pull) << (position * 2));
 80017f8:	688d      	ldr	r5, [r1, #8]
 80017fa:	fa05 f50e 	lsl.w	r5, r5, lr
 80017fe:	432c      	orrs	r4, r5
      GPIOx->PUPDR = temp;
 8001800:	60c4      	str	r4, [r0, #12]

      /*--------------------- EXTI Mode Configuration ------------------------*/
      /* Configure the External Interrupt or event for the current IO */
      if((GPIO_Init->Mode & EXTI_MODE) == EXTI_MODE)
 8001802:	684c      	ldr	r4, [r1, #4]
 8001804:	f014 5f80 	tst.w	r4, #268435456	; 0x10000000
 8001808:	d05c      	beq.n	80018c4 <HAL_GPIO_Init+0x120>
      {
        /* Enable SYSCFG Clock */
        __HAL_RCC_SYSCFG_CLK_ENABLE();
 800180a:	4c4a      	ldr	r4, [pc, #296]	; (8001934 <HAL_GPIO_Init+0x190>)
 800180c:	6e25      	ldr	r5, [r4, #96]	; 0x60
 800180e:	f045 0501 	orr.w	r5, r5, #1
 8001812:	6625      	str	r5, [r4, #96]	; 0x60
 8001814:	6e24      	ldr	r4, [r4, #96]	; 0x60
 8001816:	f004 0401 	and.w	r4, r4, #1
 800181a:	9401      	str	r4, [sp, #4]
 800181c:	9c01      	ldr	r4, [sp, #4]

        temp = SYSCFG->EXTICR[position >> 2];
 800181e:	089d      	lsrs	r5, r3, #2
 8001820:	1cae      	adds	r6, r5, #2
 8001822:	4c45      	ldr	r4, [pc, #276]	; (8001938 <HAL_GPIO_Init+0x194>)
 8001824:	f854 4026 	ldr.w	r4, [r4, r6, lsl #2]
        temp &= ~(((uint32_t)0x0F) << (4 * (position & 0x03)));
 8001828:	f003 0603 	and.w	r6, r3, #3
 800182c:	00b6      	lsls	r6, r6, #2
 800182e:	270f      	movs	r7, #15
 8001830:	40b7      	lsls	r7, r6
 8001832:	ea24 0407 	bic.w	r4, r4, r7
        temp |= (GPIO_GET_INDEX(GPIOx) << (4 * (position & 0x03)));
 8001836:	f1b0 4f90 	cmp.w	r0, #1207959552	; 0x48000000
 800183a:	d070      	beq.n	800191e <HAL_GPIO_Init+0x17a>
 800183c:	4f3f      	ldr	r7, [pc, #252]	; (800193c <HAL_GPIO_Init+0x198>)
 800183e:	42b8      	cmp	r0, r7
 8001840:	d06f      	beq.n	8001922 <HAL_GPIO_Init+0x17e>
 8001842:	f507 6780 	add.w	r7, r7, #1024	; 0x400
 8001846:	42b8      	cmp	r0, r7
 8001848:	d06d      	beq.n	8001926 <HAL_GPIO_Init+0x182>
 800184a:	f507 6780 	add.w	r7, r7, #1024	; 0x400
 800184e:	42b8      	cmp	r0, r7
 8001850:	d06b      	beq.n	800192a <HAL_GPIO_Init+0x186>
 8001852:	f507 6780 	add.w	r7, r7, #1024	; 0x400
 8001856:	42b8      	cmp	r0, r7
 8001858:	d05f      	beq.n	800191a <HAL_GPIO_Init+0x176>
 800185a:	2707      	movs	r7, #7
 800185c:	fa07 f606 	lsl.w	r6, r7, r6
 8001860:	4334      	orrs	r4, r6
        SYSCFG->EXTICR[position >> 2] = temp;
 8001862:	3502      	adds	r5, #2
 8001864:	4e34      	ldr	r6, [pc, #208]	; (8001938 <HAL_GPIO_Init+0x194>)
 8001866:	f846 4025 	str.w	r4, [r6, r5, lsl #2]

        /* Clear EXTI line configuration */
        temp = EXTI->IMR1;
 800186a:	4c35      	ldr	r4, [pc, #212]	; (8001940 <HAL_GPIO_Init+0x19c>)
 800186c:	6825      	ldr	r5, [r4, #0]
        temp &= ~((uint32_t)iocurrent);
 800186e:	43d4      	mvns	r4, r2
 8001870:	ea05 0604 	and.w	r6, r5, r4
        if((GPIO_Init->Mode & GPIO_MODE_IT) == GPIO_MODE_IT)
 8001874:	684f      	ldr	r7, [r1, #4]
 8001876:	f417 3f80 	tst.w	r7, #65536	; 0x10000
 800187a:	d001      	beq.n	8001880 <HAL_GPIO_Init+0xdc>
        {
          temp |= iocurrent;
 800187c:	ea42 0605 	orr.w	r6, r2, r5
        }
        EXTI->IMR1 = temp;
 8001880:	4d2f      	ldr	r5, [pc, #188]	; (8001940 <HAL_GPIO_Init+0x19c>)
 8001882:	602e      	str	r6, [r5, #0]

        temp = EXTI->EMR1;
 8001884:	686d      	ldr	r5, [r5, #4]
        temp &= ~((uint32_t)iocurrent);
 8001886:	ea04 0605 	and.w	r6, r4, r5
        if((GPIO_Init->Mode & GPIO_MODE_EVT) == GPIO_MODE_EVT)
 800188a:	684f      	ldr	r7, [r1, #4]
 800188c:	f417 3f00 	tst.w	r7, #131072	; 0x20000
 8001890:	d001      	beq.n	8001896 <HAL_GPIO_Init+0xf2>
        {
          temp |= iocurrent;
 8001892:	ea42 0605 	orr.w	r6, r2, r5
        }
        EXTI->EMR1 = temp;
 8001896:	4d2a      	ldr	r5, [pc, #168]	; (8001940 <HAL_GPIO_Init+0x19c>)
 8001898:	606e      	str	r6, [r5, #4]

        /* Clear Rising Falling edge configuration */
        temp = EXTI->RTSR1;
 800189a:	68ad      	ldr	r5, [r5, #8]
        temp &= ~((uint32_t)iocurrent);
 800189c:	ea04 0605 	and.w	r6, r4, r5
        if((GPIO_Init->Mode & RISING_EDGE) == RISING_EDGE)
 80018a0:	684f      	ldr	r7, [r1, #4]
 80018a2:	f417 1f80 	tst.w	r7, #1048576	; 0x100000
 80018a6:	d001      	beq.n	80018ac <HAL_GPIO_Init+0x108>
        {
          temp |= iocurrent;
 80018a8:	ea42 0605 	orr.w	r6, r2, r5
        }
        EXTI->RTSR1 = temp;
 80018ac:	4d24      	ldr	r5, [pc, #144]	; (8001940 <HAL_GPIO_Init+0x19c>)
 80018ae:	60ae      	str	r6, [r5, #8]

        temp = EXTI->FTSR1;
 80018b0:	68ed      	ldr	r5, [r5, #12]
        temp &= ~((uint32_t)iocurrent);
 80018b2:	402c      	ands	r4, r5
        if((GPIO_Init->Mode & FALLING_EDGE) == FALLING_EDGE)
 80018b4:	684e      	ldr	r6, [r1, #4]
 80018b6:	f416 1f00 	tst.w	r6, #2097152	; 0x200000
 80018ba:	d001      	beq.n	80018c0 <HAL_GPIO_Init+0x11c>
        {
          temp |= iocurrent;
 80018bc:	ea42 0405 	orr.w	r4, r2, r5
        }
        EXTI->FTSR1 = temp;
 80018c0:	4a1f      	ldr	r2, [pc, #124]	; (8001940 <HAL_GPIO_Init+0x19c>)
 80018c2:	60d4      	str	r4, [r2, #12]
      }
    }
    
    position++;
 80018c4:	3301      	adds	r3, #1
  while (((GPIO_Init->Pin) >> position) != RESET)
 80018c6:	680a      	ldr	r2, [r1, #0]
 80018c8:	fa32 f403 	lsrs.w	r4, r2, r3
 80018cc:	d02f      	beq.n	800192e <HAL_GPIO_Init+0x18a>
    iocurrent = (GPIO_Init->Pin) & (1U << position);
 80018ce:	2501      	movs	r5, #1
 80018d0:	409d      	lsls	r5, r3
    if(iocurrent)
 80018d2:	402a      	ands	r2, r5
 80018d4:	d0f6      	beq.n	80018c4 <HAL_GPIO_Init+0x120>
      if((GPIO_Init->Mode == GPIO_MODE_AF_PP) || (GPIO_Init->Mode == GPIO_MODE_AF_OD))
 80018d6:	684c      	ldr	r4, [r1, #4]
 80018d8:	2c02      	cmp	r4, #2
 80018da:	f43f af67 	beq.w	80017ac <HAL_GPIO_Init+0x8>
 80018de:	2c12      	cmp	r4, #18
 80018e0:	f43f af64 	beq.w	80017ac <HAL_GPIO_Init+0x8>
      temp = GPIOx->MODER;
 80018e4:	6806      	ldr	r6, [r0, #0]
      temp &= ~(GPIO_MODER_MODE0 << (position * 2));
 80018e6:	ea4f 0e43 	mov.w	lr, r3, lsl #1
 80018ea:	2403      	movs	r4, #3
 80018ec:	fa04 f40e 	lsl.w	r4, r4, lr
 80018f0:	43e4      	mvns	r4, r4
 80018f2:	4026      	ands	r6, r4
      temp |= ((GPIO_Init->Mode & GPIO_MODE) << (position * 2));
 80018f4:	684f      	ldr	r7, [r1, #4]
 80018f6:	f007 0703 	and.w	r7, r7, #3
 80018fa:	fa07 f70e 	lsl.w	r7, r7, lr
 80018fe:	433e      	orrs	r6, r7
      GPIOx->MODER = temp;
 8001900:	6006      	str	r6, [r0, #0]
      if((GPIO_Init->Mode == GPIO_MODE_OUTPUT_PP) || (GPIO_Init->Mode == GPIO_MODE_AF_PP) ||
 8001902:	684e      	ldr	r6, [r1, #4]
 8001904:	1e77      	subs	r7, r6, #1
 8001906:	2f01      	cmp	r7, #1
 8001908:	f67f af64 	bls.w	80017d4 <HAL_GPIO_Init+0x30>
 800190c:	2e11      	cmp	r6, #17
 800190e:	f43f af61 	beq.w	80017d4 <HAL_GPIO_Init+0x30>
         (GPIO_Init->Mode == GPIO_MODE_OUTPUT_OD) || (GPIO_Init->Mode == GPIO_MODE_AF_OD))
 8001912:	2e12      	cmp	r6, #18
 8001914:	f47f af6e 	bne.w	80017f4 <HAL_GPIO_Init+0x50>
 8001918:	e75c      	b.n	80017d4 <HAL_GPIO_Init+0x30>
        temp |= (GPIO_GET_INDEX(GPIOx) << (4 * (position & 0x03)));
 800191a:	2704      	movs	r7, #4
 800191c:	e79e      	b.n	800185c <HAL_GPIO_Init+0xb8>
 800191e:	2700      	movs	r7, #0
 8001920:	e79c      	b.n	800185c <HAL_GPIO_Init+0xb8>
 8001922:	2701      	movs	r7, #1
 8001924:	e79a      	b.n	800185c <HAL_GPIO_Init+0xb8>
 8001926:	2702      	movs	r7, #2
 8001928:	e798      	b.n	800185c <HAL_GPIO_Init+0xb8>
 800192a:	2703      	movs	r7, #3
 800192c:	e796      	b.n	800185c <HAL_GPIO_Init+0xb8>
  }
}
 800192e:	b003      	add	sp, #12
 8001930:	bdf0      	pop	{r4, r5, r6, r7, pc}
 8001932:	bf00      	nop
 8001934:	40021000 	.word	0x40021000
 8001938:	40010000 	.word	0x40010000
 800193c:	48000400 	.word	0x48000400
 8001940:	40010400 	.word	0x40010400

08001944 <HAL_GPIO_WritePin>:
{
  /* Check the parameters */
  assert_param(IS_GPIO_PIN(GPIO_Pin));
  assert_param(IS_GPIO_PIN_ACTION(PinState));

  if(PinState != GPIO_PIN_RESET)
 8001944:	b90a      	cbnz	r2, 800194a <HAL_GPIO_WritePin+0x6>
  {
    GPIOx->BSRR = (uint32_t)GPIO_Pin;
  }
  else
  {
    GPIOx->BRR = (uint32_t)GPIO_Pin;
 8001946:	6281      	str	r1, [r0, #40]	; 0x28
 8001948:	4770      	bx	lr
    GPIOx->BSRR = (uint32_t)GPIO_Pin;
 800194a:	6181      	str	r1, [r0, #24]
 800194c:	4770      	bx	lr

0800194e <HAL_GPIO_TogglePin>:
void HAL_GPIO_TogglePin(GPIO_TypeDef* GPIOx, uint16_t GPIO_Pin)
{
  /* Check the parameters */
  assert_param(IS_GPIO_PIN(GPIO_Pin));

  GPIOx->ODR ^= GPIO_Pin;
 800194e:	6943      	ldr	r3, [r0, #20]
 8001950:	4059      	eors	r1, r3
 8001952:	6141      	str	r1, [r0, #20]
 8001954:	4770      	bx	lr
	...

08001958 <HAL_GPIO_EXTI_IRQHandler>:
  * @brief  Handle EXTI interrupt request.
  * @param  GPIO_Pin: Specifies the port pin connected to corresponding EXTI line.
  * @retval None
  */
void HAL_GPIO_EXTI_IRQHandler(uint16_t GPIO_Pin)
{
 8001958:	b508      	push	{r3, lr}
  /* EXTI line interrupt detected */
  if(__HAL_GPIO_EXTI_GET_IT(GPIO_Pin) != RESET)
 800195a:	4b05      	ldr	r3, [pc, #20]	; (8001970 <HAL_GPIO_EXTI_IRQHandler+0x18>)
 800195c:	695b      	ldr	r3, [r3, #20]
 800195e:	4203      	tst	r3, r0
 8001960:	d100      	bne.n	8001964 <HAL_GPIO_EXTI_IRQHandler+0xc>
 8001962:	bd08      	pop	{r3, pc}
  {
    __HAL_GPIO_EXTI_CLEAR_IT(GPIO_Pin);
 8001964:	4b02      	ldr	r3, [pc, #8]	; (8001970 <HAL_GPIO_EXTI_IRQHandler+0x18>)
 8001966:	6158      	str	r0, [r3, #20]
    HAL_GPIO_EXTI_Callback(GPIO_Pin);
 8001968:	f7ff faab 	bl	8000ec2 <HAL_GPIO_EXTI_Callback>
  }
}
 800196c:	e7f9      	b.n	8001962 <HAL_GPIO_EXTI_IRQHandler+0xa>
 800196e:	bf00      	nop
 8001970:	40010400 	.word	0x40010400

08001974 <HAL_PWREx_GetVoltageRange>:
    else
    {
      return PWR_REGULATOR_VOLTAGE_SCALE1_BOOST;
    }
#else
  return  (PWR->CR1 & PWR_CR1_VOS);
 8001974:	4b02      	ldr	r3, [pc, #8]	; (8001980 <HAL_PWREx_GetVoltageRange+0xc>)
 8001976:	6818      	ldr	r0, [r3, #0]
#endif  
}
 8001978:	f400 60c0 	and.w	r0, r0, #1536	; 0x600
 800197c:	4770      	bx	lr
 800197e:	bf00      	nop
 8001980:	40007000 	.word	0x40007000

08001984 <HAL_PWREx_ControlVoltageScaling>:
  }
  
#else

  /* If Set Range 1 */
  if (VoltageScaling == PWR_REGULATOR_VOLTAGE_SCALE1)
 8001984:	f5b0 7f00 	cmp.w	r0, #512	; 0x200
 8001988:	d00f      	beq.n	80019aa <HAL_PWREx_ControlVoltageScaling+0x26>
      }
    }
  }
  else
  {
    if (READ_BIT(PWR->CR1, PWR_CR1_VOS) != PWR_REGULATOR_VOLTAGE_SCALE2)
 800198a:	4b20      	ldr	r3, [pc, #128]	; (8001a0c <HAL_PWREx_ControlVoltageScaling+0x88>)
 800198c:	681b      	ldr	r3, [r3, #0]
 800198e:	f403 63c0 	and.w	r3, r3, #1536	; 0x600
 8001992:	f5b3 6f80 	cmp.w	r3, #1024	; 0x400
 8001996:	d037      	beq.n	8001a08 <HAL_PWREx_ControlVoltageScaling+0x84>
    {
      /* Set Range 2 */
      MODIFY_REG(PWR->CR1, PWR_CR1_VOS, PWR_REGULATOR_VOLTAGE_SCALE2);
 8001998:	4a1c      	ldr	r2, [pc, #112]	; (8001a0c <HAL_PWREx_ControlVoltageScaling+0x88>)
 800199a:	6813      	ldr	r3, [r2, #0]
 800199c:	f423 63c0 	bic.w	r3, r3, #1536	; 0x600
 80019a0:	f443 6380 	orr.w	r3, r3, #1024	; 0x400
 80019a4:	6013      	str	r3, [r2, #0]
      /* No need to wait for VOSF to be cleared for this transition */
    }
  }
#endif  
  
  return HAL_OK;
 80019a6:	2000      	movs	r0, #0
 80019a8:	4770      	bx	lr
    if (READ_BIT(PWR->CR1, PWR_CR1_VOS) != PWR_REGULATOR_VOLTAGE_SCALE1)
 80019aa:	4b18      	ldr	r3, [pc, #96]	; (8001a0c <HAL_PWREx_ControlVoltageScaling+0x88>)
 80019ac:	681b      	ldr	r3, [r3, #0]
 80019ae:	f403 63c0 	and.w	r3, r3, #1536	; 0x600
 80019b2:	f5b3 7f00 	cmp.w	r3, #512	; 0x200
 80019b6:	d023      	beq.n	8001a00 <HAL_PWREx_ControlVoltageScaling+0x7c>
      MODIFY_REG(PWR->CR1, PWR_CR1_VOS, PWR_REGULATOR_VOLTAGE_SCALE1);
 80019b8:	4a14      	ldr	r2, [pc, #80]	; (8001a0c <HAL_PWREx_ControlVoltageScaling+0x88>)
 80019ba:	6813      	ldr	r3, [r2, #0]
 80019bc:	f423 63c0 	bic.w	r3, r3, #1536	; 0x600
 80019c0:	f443 7300 	orr.w	r3, r3, #512	; 0x200
 80019c4:	6013      	str	r3, [r2, #0]
      wait_loop_index = (PWR_FLAG_SETTING_DELAY_US * (SystemCoreClock / 1000000));
 80019c6:	4b12      	ldr	r3, [pc, #72]	; (8001a10 <HAL_PWREx_ControlVoltageScaling+0x8c>)
 80019c8:	681b      	ldr	r3, [r3, #0]
 80019ca:	f102 7246 	add.w	r2, r2, #51904512	; 0x3180000
 80019ce:	f502 325b 	add.w	r2, r2, #224256	; 0x36c00
 80019d2:	f202 2283 	addw	r2, r2, #643	; 0x283
 80019d6:	fba2 2303 	umull	r2, r3, r2, r3
 80019da:	0c9a      	lsrs	r2, r3, #18
 80019dc:	2332      	movs	r3, #50	; 0x32
 80019de:	fb03 f302 	mul.w	r3, r3, r2
      while ((wait_loop_index != 0) && (HAL_IS_BIT_SET(PWR->SR2, PWR_SR2_VOSF)))
 80019e2:	e000      	b.n	80019e6 <HAL_PWREx_ControlVoltageScaling+0x62>
        wait_loop_index--;
 80019e4:	3b01      	subs	r3, #1
      while ((wait_loop_index != 0) && (HAL_IS_BIT_SET(PWR->SR2, PWR_SR2_VOSF)))
 80019e6:	b123      	cbz	r3, 80019f2 <HAL_PWREx_ControlVoltageScaling+0x6e>
 80019e8:	4a08      	ldr	r2, [pc, #32]	; (8001a0c <HAL_PWREx_ControlVoltageScaling+0x88>)
 80019ea:	6952      	ldr	r2, [r2, #20]
 80019ec:	f412 6f80 	tst.w	r2, #1024	; 0x400
 80019f0:	d1f8      	bne.n	80019e4 <HAL_PWREx_ControlVoltageScaling+0x60>
      if (HAL_IS_BIT_SET(PWR->SR2, PWR_SR2_VOSF))
 80019f2:	4b06      	ldr	r3, [pc, #24]	; (8001a0c <HAL_PWREx_ControlVoltageScaling+0x88>)
 80019f4:	695b      	ldr	r3, [r3, #20]
 80019f6:	f413 6f80 	tst.w	r3, #1024	; 0x400
 80019fa:	d003      	beq.n	8001a04 <HAL_PWREx_ControlVoltageScaling+0x80>
        return HAL_TIMEOUT;
 80019fc:	2003      	movs	r0, #3
 80019fe:	4770      	bx	lr
  return HAL_OK;
 8001a00:	2000      	movs	r0, #0
 8001a02:	4770      	bx	lr
 8001a04:	2000      	movs	r0, #0
 8001a06:	4770      	bx	lr
 8001a08:	2000      	movs	r0, #0
}  
 8001a0a:	4770      	bx	lr
 8001a0c:	40007000 	.word	0x40007000
 8001a10:	2000003c 	.word	0x2000003c

08001a14 <RCC_SetFlashLatencyFromMSIRange>:
            voltage range.
  * @param  msirange  MSI range value from RCC_MSIRANGE_0 to RCC_MSIRANGE_11
  * @retval HAL status
  */
static HAL_StatusTypeDef RCC_SetFlashLatencyFromMSIRange(uint32_t msirange)
{
 8001a14:	b530      	push	{r4, r5, lr}
 8001a16:	b083      	sub	sp, #12
 8001a18:	4605      	mov	r5, r0
  uint32_t vos = 0;
  uint32_t latency = FLASH_LATENCY_0;  /* default value 0WS */

  if(__HAL_RCC_PWR_IS_CLK_ENABLED())
 8001a1a:	4b20      	ldr	r3, [pc, #128]	; (8001a9c <RCC_SetFlashLatencyFromMSIRange+0x88>)
 8001a1c:	6d9b      	ldr	r3, [r3, #88]	; 0x58
 8001a1e:	f013 5f80 	tst.w	r3, #268435456	; 0x10000000
 8001a22:	d00b      	beq.n	8001a3c <RCC_SetFlashLatencyFromMSIRange+0x28>
  {
    vos = HAL_PWREx_GetVoltageRange();
 8001a24:	f7ff ffa6 	bl	8001974 <HAL_PWREx_GetVoltageRange>
    __HAL_RCC_PWR_CLK_ENABLE();
    vos = HAL_PWREx_GetVoltageRange();
    __HAL_RCC_PWR_CLK_DISABLE();
  }

  if(vos == PWR_REGULATOR_VOLTAGE_SCALE1)
 8001a28:	f5b0 7f00 	cmp.w	r0, #512	; 0x200
 8001a2c:	d017      	beq.n	8001a5e <RCC_SetFlashLatencyFromMSIRange+0x4a>
        latency = FLASH_LATENCY_1; /* 1WS */
      }
      /* else MSI < 8Mhz default FLASH_LATENCY_0 0WS */
    }
#else
    if(msirange > RCC_MSIRANGE_8)
 8001a2e:	2d80      	cmp	r5, #128	; 0x80
 8001a30:	d81f      	bhi.n	8001a72 <RCC_SetFlashLatencyFromMSIRange+0x5e>
      /* MSI > 16Mhz */
      latency = FLASH_LATENCY_3; /* 3WS */
    }
    else
    {
      if(msirange == RCC_MSIRANGE_8)
 8001a32:	d02d      	beq.n	8001a90 <RCC_SetFlashLatencyFromMSIRange+0x7c>
      {
        /* MSI 16Mhz */
        latency = FLASH_LATENCY_2; /* 2WS */
      }
      else if(msirange == RCC_MSIRANGE_7)
 8001a34:	2d70      	cmp	r5, #112	; 0x70
 8001a36:	d02d      	beq.n	8001a94 <RCC_SetFlashLatencyFromMSIRange+0x80>
  uint32_t latency = FLASH_LATENCY_0;  /* default value 0WS */
 8001a38:	2100      	movs	r1, #0
 8001a3a:	e01b      	b.n	8001a74 <RCC_SetFlashLatencyFromMSIRange+0x60>
    __HAL_RCC_PWR_CLK_ENABLE();
 8001a3c:	4c17      	ldr	r4, [pc, #92]	; (8001a9c <RCC_SetFlashLatencyFromMSIRange+0x88>)
 8001a3e:	6da3      	ldr	r3, [r4, #88]	; 0x58
 8001a40:	f043 5380 	orr.w	r3, r3, #268435456	; 0x10000000
 8001a44:	65a3      	str	r3, [r4, #88]	; 0x58
 8001a46:	6da3      	ldr	r3, [r4, #88]	; 0x58
 8001a48:	f003 5380 	and.w	r3, r3, #268435456	; 0x10000000
 8001a4c:	9301      	str	r3, [sp, #4]
 8001a4e:	9b01      	ldr	r3, [sp, #4]
    vos = HAL_PWREx_GetVoltageRange();
 8001a50:	f7ff ff90 	bl	8001974 <HAL_PWREx_GetVoltageRange>
    __HAL_RCC_PWR_CLK_DISABLE();
 8001a54:	6da3      	ldr	r3, [r4, #88]	; 0x58
 8001a56:	f023 5380 	bic.w	r3, r3, #268435456	; 0x10000000
 8001a5a:	65a3      	str	r3, [r4, #88]	; 0x58
 8001a5c:	e7e4      	b.n	8001a28 <RCC_SetFlashLatencyFromMSIRange+0x14>
    if(msirange > RCC_MSIRANGE_8)
 8001a5e:	2d80      	cmp	r5, #128	; 0x80
 8001a60:	d903      	bls.n	8001a6a <RCC_SetFlashLatencyFromMSIRange+0x56>
      if(msirange > RCC_MSIRANGE_10)
 8001a62:	2da0      	cmp	r5, #160	; 0xa0
 8001a64:	d903      	bls.n	8001a6e <RCC_SetFlashLatencyFromMSIRange+0x5a>
        latency = FLASH_LATENCY_2; /* 2WS */
 8001a66:	2102      	movs	r1, #2
 8001a68:	e004      	b.n	8001a74 <RCC_SetFlashLatencyFromMSIRange+0x60>
  uint32_t latency = FLASH_LATENCY_0;  /* default value 0WS */
 8001a6a:	2100      	movs	r1, #0
 8001a6c:	e002      	b.n	8001a74 <RCC_SetFlashLatencyFromMSIRange+0x60>
        latency = FLASH_LATENCY_1; /* 1WS */
 8001a6e:	2101      	movs	r1, #1
 8001a70:	e000      	b.n	8001a74 <RCC_SetFlashLatencyFromMSIRange+0x60>
      latency = FLASH_LATENCY_3; /* 3WS */
 8001a72:	2103      	movs	r1, #3
      /* else MSI < 8Mhz default FLASH_LATENCY_0 0WS */
    }
#endif
  }

  __HAL_FLASH_SET_LATENCY(latency);
 8001a74:	4a0a      	ldr	r2, [pc, #40]	; (8001aa0 <RCC_SetFlashLatencyFromMSIRange+0x8c>)
 8001a76:	6813      	ldr	r3, [r2, #0]
 8001a78:	f023 0307 	bic.w	r3, r3, #7
 8001a7c:	430b      	orrs	r3, r1
 8001a7e:	6013      	str	r3, [r2, #0]

  /* Check that the new number of wait states is taken into account to access the Flash
     memory by reading the FLASH_ACR register */
  if(READ_BIT(FLASH->ACR, FLASH_ACR_LATENCY) != latency)
 8001a80:	6813      	ldr	r3, [r2, #0]
 8001a82:	f003 0307 	and.w	r3, r3, #7
 8001a86:	4299      	cmp	r1, r3
 8001a88:	d006      	beq.n	8001a98 <RCC_SetFlashLatencyFromMSIRange+0x84>
  {
    return HAL_ERROR;
 8001a8a:	2001      	movs	r0, #1
  }

  return HAL_OK;
}
 8001a8c:	b003      	add	sp, #12
 8001a8e:	bd30      	pop	{r4, r5, pc}
        latency = FLASH_LATENCY_2; /* 2WS */
 8001a90:	2102      	movs	r1, #2
 8001a92:	e7ef      	b.n	8001a74 <RCC_SetFlashLatencyFromMSIRange+0x60>
        latency = FLASH_LATENCY_1; /* 1WS */
 8001a94:	2101      	movs	r1, #1
 8001a96:	e7ed      	b.n	8001a74 <RCC_SetFlashLatencyFromMSIRange+0x60>
  return HAL_OK;
 8001a98:	2000      	movs	r0, #0
 8001a9a:	e7f7      	b.n	8001a8c <RCC_SetFlashLatencyFromMSIRange+0x78>
 8001a9c:	40021000 	.word	0x40021000
 8001aa0:	40022000 	.word	0x40022000

08001aa4 <HAL_RCC_GetSysClockFreq>:
  if((__HAL_RCC_GET_SYSCLK_SOURCE() == RCC_CFGR_SWS_MSI) ||
 8001aa4:	4b3b      	ldr	r3, [pc, #236]	; (8001b94 <HAL_RCC_GetSysClockFreq+0xf0>)
 8001aa6:	689b      	ldr	r3, [r3, #8]
 8001aa8:	f013 0f0c 	tst.w	r3, #12
 8001aac:	d01a      	beq.n	8001ae4 <HAL_RCC_GetSysClockFreq+0x40>
     ((__HAL_RCC_GET_SYSCLK_SOURCE() == RCC_CFGR_SWS_PLL) && (__HAL_RCC_GET_PLL_OSCSOURCE() == RCC_PLLSOURCE_MSI)))
 8001aae:	4b39      	ldr	r3, [pc, #228]	; (8001b94 <HAL_RCC_GetSysClockFreq+0xf0>)
 8001ab0:	689b      	ldr	r3, [r3, #8]
 8001ab2:	f003 030c 	and.w	r3, r3, #12
  if((__HAL_RCC_GET_SYSCLK_SOURCE() == RCC_CFGR_SWS_MSI) ||
 8001ab6:	2b0c      	cmp	r3, #12
 8001ab8:	d00e      	beq.n	8001ad8 <HAL_RCC_GetSysClockFreq+0x34>
  else if(__HAL_RCC_GET_SYSCLK_SOURCE() == RCC_CFGR_SWS_HSI)
 8001aba:	4b36      	ldr	r3, [pc, #216]	; (8001b94 <HAL_RCC_GetSysClockFreq+0xf0>)
 8001abc:	689b      	ldr	r3, [r3, #8]
 8001abe:	f003 030c 	and.w	r3, r3, #12
 8001ac2:	2b04      	cmp	r3, #4
 8001ac4:	d02f      	beq.n	8001b26 <HAL_RCC_GetSysClockFreq+0x82>
  else if(__HAL_RCC_GET_SYSCLK_SOURCE() == RCC_CFGR_SWS_HSE)
 8001ac6:	4b33      	ldr	r3, [pc, #204]	; (8001b94 <HAL_RCC_GetSysClockFreq+0xf0>)
 8001ac8:	689b      	ldr	r3, [r3, #8]
 8001aca:	f003 030c 	and.w	r3, r3, #12
 8001ace:	2b08      	cmp	r3, #8
 8001ad0:	d02c      	beq.n	8001b2c <HAL_RCC_GetSysClockFreq+0x88>
  uint32_t sysclockfreq = 0U;
 8001ad2:	2000      	movs	r0, #0
  uint32_t msirange = 0U, pllvco = 0U, pllsource = 0U, pllr = 2U, pllm = 2U;
 8001ad4:	4601      	mov	r1, r0
 8001ad6:	e018      	b.n	8001b0a <HAL_RCC_GetSysClockFreq+0x66>
     ((__HAL_RCC_GET_SYSCLK_SOURCE() == RCC_CFGR_SWS_PLL) && (__HAL_RCC_GET_PLL_OSCSOURCE() == RCC_PLLSOURCE_MSI)))
 8001ad8:	4b2e      	ldr	r3, [pc, #184]	; (8001b94 <HAL_RCC_GetSysClockFreq+0xf0>)
 8001ada:	68db      	ldr	r3, [r3, #12]
 8001adc:	f003 0303 	and.w	r3, r3, #3
 8001ae0:	2b01      	cmp	r3, #1
 8001ae2:	d1ea      	bne.n	8001aba <HAL_RCC_GetSysClockFreq+0x16>
    if(READ_BIT(RCC->CR, RCC_CR_MSIRGSEL) == RESET)
 8001ae4:	4b2b      	ldr	r3, [pc, #172]	; (8001b94 <HAL_RCC_GetSysClockFreq+0xf0>)
 8001ae6:	681b      	ldr	r3, [r3, #0]
 8001ae8:	f013 0f08 	tst.w	r3, #8
 8001aec:	d114      	bne.n	8001b18 <HAL_RCC_GetSysClockFreq+0x74>
      msirange = READ_BIT(RCC->CSR, RCC_CSR_MSISRANGE) >> RCC_CSR_MSISRANGE_Pos;
 8001aee:	4b29      	ldr	r3, [pc, #164]	; (8001b94 <HAL_RCC_GetSysClockFreq+0xf0>)
 8001af0:	f8d3 3094 	ldr.w	r3, [r3, #148]	; 0x94
 8001af4:	f3c3 2303 	ubfx	r3, r3, #8, #4
    msirange = MSIRangeTable[msirange];
 8001af8:	4a27      	ldr	r2, [pc, #156]	; (8001b98 <HAL_RCC_GetSysClockFreq+0xf4>)
 8001afa:	f852 1023 	ldr.w	r1, [r2, r3, lsl #2]
    if(__HAL_RCC_GET_SYSCLK_SOURCE() == RCC_CFGR_SWS_MSI)
 8001afe:	4b25      	ldr	r3, [pc, #148]	; (8001b94 <HAL_RCC_GetSysClockFreq+0xf0>)
 8001b00:	689b      	ldr	r3, [r3, #8]
 8001b02:	f013 0f0c 	tst.w	r3, #12
 8001b06:	d00c      	beq.n	8001b22 <HAL_RCC_GetSysClockFreq+0x7e>
  uint32_t sysclockfreq = 0U;
 8001b08:	2000      	movs	r0, #0
  if(__HAL_RCC_GET_SYSCLK_SOURCE() == RCC_CFGR_SWS_PLL)
 8001b0a:	4a22      	ldr	r2, [pc, #136]	; (8001b94 <HAL_RCC_GetSysClockFreq+0xf0>)
 8001b0c:	6893      	ldr	r3, [r2, #8]
 8001b0e:	f003 030c 	and.w	r3, r3, #12
 8001b12:	2b0c      	cmp	r3, #12
 8001b14:	d00d      	beq.n	8001b32 <HAL_RCC_GetSysClockFreq+0x8e>
}
 8001b16:	4770      	bx	lr
      msirange = READ_BIT(RCC->CR, RCC_CR_MSIRANGE) >> RCC_CR_MSIRANGE_Pos;
 8001b18:	4b1e      	ldr	r3, [pc, #120]	; (8001b94 <HAL_RCC_GetSysClockFreq+0xf0>)
 8001b1a:	681b      	ldr	r3, [r3, #0]
 8001b1c:	f3c3 1303 	ubfx	r3, r3, #4, #4
 8001b20:	e7ea      	b.n	8001af8 <HAL_RCC_GetSysClockFreq+0x54>
      sysclockfreq = msirange;
 8001b22:	4608      	mov	r0, r1
 8001b24:	e7f1      	b.n	8001b0a <HAL_RCC_GetSysClockFreq+0x66>
    sysclockfreq = HSI_VALUE;
 8001b26:	481d      	ldr	r0, [pc, #116]	; (8001b9c <HAL_RCC_GetSysClockFreq+0xf8>)
  uint32_t msirange = 0U, pllvco = 0U, pllsource = 0U, pllr = 2U, pllm = 2U;
 8001b28:	2100      	movs	r1, #0
 8001b2a:	e7ee      	b.n	8001b0a <HAL_RCC_GetSysClockFreq+0x66>
    sysclockfreq = HSE_VALUE;
 8001b2c:	481c      	ldr	r0, [pc, #112]	; (8001ba0 <HAL_RCC_GetSysClockFreq+0xfc>)
  uint32_t msirange = 0U, pllvco = 0U, pllsource = 0U, pllr = 2U, pllm = 2U;
 8001b2e:	2100      	movs	r1, #0
 8001b30:	e7eb      	b.n	8001b0a <HAL_RCC_GetSysClockFreq+0x66>
    pllsource = READ_BIT(RCC->PLLCFGR, RCC_PLLCFGR_PLLSRC);
 8001b32:	4613      	mov	r3, r2
 8001b34:	68d2      	ldr	r2, [r2, #12]
 8001b36:	f002 0203 	and.w	r2, r2, #3
    pllm = (READ_BIT(RCC->PLLCFGR, RCC_PLLCFGR_PLLM) >> RCC_PLLCFGR_PLLM_Pos) + 1U ;
 8001b3a:	68db      	ldr	r3, [r3, #12]
 8001b3c:	f3c3 1302 	ubfx	r3, r3, #4, #3
 8001b40:	3301      	adds	r3, #1
    switch (pllsource)
 8001b42:	2a02      	cmp	r2, #2
 8001b44:	d00a      	beq.n	8001b5c <HAL_RCC_GetSysClockFreq+0xb8>
 8001b46:	2a03      	cmp	r2, #3
 8001b48:	d01a      	beq.n	8001b80 <HAL_RCC_GetSysClockFreq+0xdc>
      pllvco = (msirange / pllm) * (READ_BIT(RCC->PLLCFGR, RCC_PLLCFGR_PLLN) >> RCC_PLLCFGR_PLLN_Pos);
 8001b4a:	fbb1 f3f3 	udiv	r3, r1, r3
 8001b4e:	4a11      	ldr	r2, [pc, #68]	; (8001b94 <HAL_RCC_GetSysClockFreq+0xf0>)
 8001b50:	68d0      	ldr	r0, [r2, #12]
 8001b52:	f3c0 2006 	ubfx	r0, r0, #8, #7
 8001b56:	fb00 f003 	mul.w	r0, r0, r3
      break;
 8001b5a:	e008      	b.n	8001b6e <HAL_RCC_GetSysClockFreq+0xca>
      pllvco = (HSI_VALUE / pllm) * (READ_BIT(RCC->PLLCFGR, RCC_PLLCFGR_PLLN) >> RCC_PLLCFGR_PLLN_Pos);
 8001b5c:	480f      	ldr	r0, [pc, #60]	; (8001b9c <HAL_RCC_GetSysClockFreq+0xf8>)
 8001b5e:	fbb0 f3f3 	udiv	r3, r0, r3
 8001b62:	4a0c      	ldr	r2, [pc, #48]	; (8001b94 <HAL_RCC_GetSysClockFreq+0xf0>)
 8001b64:	68d0      	ldr	r0, [r2, #12]
 8001b66:	f3c0 2006 	ubfx	r0, r0, #8, #7
 8001b6a:	fb00 f003 	mul.w	r0, r0, r3
    pllr = ((READ_BIT(RCC->PLLCFGR, RCC_PLLCFGR_PLLR) >> RCC_PLLCFGR_PLLR_Pos) + 1U ) * 2U;
 8001b6e:	4b09      	ldr	r3, [pc, #36]	; (8001b94 <HAL_RCC_GetSysClockFreq+0xf0>)
 8001b70:	68db      	ldr	r3, [r3, #12]
 8001b72:	f3c3 6341 	ubfx	r3, r3, #25, #2
 8001b76:	3301      	adds	r3, #1
 8001b78:	005b      	lsls	r3, r3, #1
    sysclockfreq = pllvco/pllr;
 8001b7a:	fbb0 f0f3 	udiv	r0, r0, r3
  return sysclockfreq;
 8001b7e:	e7ca      	b.n	8001b16 <HAL_RCC_GetSysClockFreq+0x72>
      pllvco = (HSE_VALUE / pllm) * (READ_BIT(RCC->PLLCFGR, RCC_PLLCFGR_PLLN) >> RCC_PLLCFGR_PLLN_Pos);
 8001b80:	4807      	ldr	r0, [pc, #28]	; (8001ba0 <HAL_RCC_GetSysClockFreq+0xfc>)
 8001b82:	fbb0 f3f3 	udiv	r3, r0, r3
 8001b86:	4a03      	ldr	r2, [pc, #12]	; (8001b94 <HAL_RCC_GetSysClockFreq+0xf0>)
 8001b88:	68d0      	ldr	r0, [r2, #12]
 8001b8a:	f3c0 2006 	ubfx	r0, r0, #8, #7
 8001b8e:	fb00 f003 	mul.w	r0, r0, r3
      break;
 8001b92:	e7ec      	b.n	8001b6e <HAL_RCC_GetSysClockFreq+0xca>
 8001b94:	40021000 	.word	0x40021000
 8001b98:	08003914 	.word	0x08003914
 8001b9c:	00f42400 	.word	0x00f42400
 8001ba0:	007a1200 	.word	0x007a1200

08001ba4 <HAL_RCC_OscConfig>:
{
 8001ba4:	b570      	push	{r4, r5, r6, lr}
 8001ba6:	b082      	sub	sp, #8
 8001ba8:	4604      	mov	r4, r0
  if(((RCC_OscInitStruct->OscillatorType) & RCC_OSCILLATORTYPE_MSI) == RCC_OSCILLATORTYPE_MSI)
 8001baa:	6803      	ldr	r3, [r0, #0]
 8001bac:	f013 0f10 	tst.w	r3, #16
 8001bb0:	d03f      	beq.n	8001c32 <HAL_RCC_OscConfig+0x8e>
    if((__HAL_RCC_GET_SYSCLK_SOURCE() == RCC_CFGR_SWS_MSI) )
 8001bb2:	4b97      	ldr	r3, [pc, #604]	; (8001e10 <HAL_RCC_OscConfig+0x26c>)
 8001bb4:	689b      	ldr	r3, [r3, #8]
 8001bb6:	f013 0f0c 	tst.w	r3, #12
 8001bba:	f040 8092 	bne.w	8001ce2 <HAL_RCC_OscConfig+0x13e>
      if((READ_BIT(RCC->CR, RCC_CR_MSIRDY) != RESET) && (RCC_OscInitStruct->MSIState == RCC_MSI_OFF))
 8001bbe:	4b94      	ldr	r3, [pc, #592]	; (8001e10 <HAL_RCC_OscConfig+0x26c>)
 8001bc0:	681b      	ldr	r3, [r3, #0]
 8001bc2:	f013 0f02 	tst.w	r3, #2
 8001bc6:	d003      	beq.n	8001bd0 <HAL_RCC_OscConfig+0x2c>
 8001bc8:	6983      	ldr	r3, [r0, #24]
 8001bca:	2b00      	cmp	r3, #0
 8001bcc:	f000 82c0 	beq.w	8002150 <HAL_RCC_OscConfig+0x5ac>
        if(RCC_OscInitStruct->MSIClockRange > __HAL_RCC_GET_MSI_RANGE())
 8001bd0:	6a20      	ldr	r0, [r4, #32]
 8001bd2:	4b8f      	ldr	r3, [pc, #572]	; (8001e10 <HAL_RCC_OscConfig+0x26c>)
 8001bd4:	681b      	ldr	r3, [r3, #0]
 8001bd6:	f013 0f08 	tst.w	r3, #8
 8001bda:	d062      	beq.n	8001ca2 <HAL_RCC_OscConfig+0xfe>
 8001bdc:	4b8c      	ldr	r3, [pc, #560]	; (8001e10 <HAL_RCC_OscConfig+0x26c>)
 8001bde:	681b      	ldr	r3, [r3, #0]
 8001be0:	f003 03f0 	and.w	r3, r3, #240	; 0xf0
 8001be4:	4283      	cmp	r3, r0
 8001be6:	d263      	bcs.n	8001cb0 <HAL_RCC_OscConfig+0x10c>
          if(RCC_SetFlashLatencyFromMSIRange(RCC_OscInitStruct->MSIClockRange) != HAL_OK)
 8001be8:	f7ff ff14 	bl	8001a14 <RCC_SetFlashLatencyFromMSIRange>
 8001bec:	2800      	cmp	r0, #0
 8001bee:	f040 82b1 	bne.w	8002154 <HAL_RCC_OscConfig+0x5b0>
          __HAL_RCC_MSI_RANGE_CONFIG(RCC_OscInitStruct->MSIClockRange);
 8001bf2:	4b87      	ldr	r3, [pc, #540]	; (8001e10 <HAL_RCC_OscConfig+0x26c>)
 8001bf4:	681a      	ldr	r2, [r3, #0]
 8001bf6:	f042 0208 	orr.w	r2, r2, #8
 8001bfa:	601a      	str	r2, [r3, #0]
 8001bfc:	681a      	ldr	r2, [r3, #0]
 8001bfe:	f022 02f0 	bic.w	r2, r2, #240	; 0xf0
 8001c02:	6a21      	ldr	r1, [r4, #32]
 8001c04:	430a      	orrs	r2, r1
 8001c06:	601a      	str	r2, [r3, #0]
          __HAL_RCC_MSI_CALIBRATIONVALUE_ADJUST(RCC_OscInitStruct->MSICalibrationValue);
 8001c08:	685a      	ldr	r2, [r3, #4]
 8001c0a:	f422 427f 	bic.w	r2, r2, #65280	; 0xff00
 8001c0e:	69e1      	ldr	r1, [r4, #28]
 8001c10:	ea42 2201 	orr.w	r2, r2, r1, lsl #8
 8001c14:	605a      	str	r2, [r3, #4]
        SystemCoreClock = HAL_RCC_GetSysClockFreq() >> AHBPrescTable[READ_BIT(RCC->CFGR, RCC_CFGR_HPRE) >> RCC_CFGR_HPRE_Pos];
 8001c16:	f7ff ff45 	bl	8001aa4 <HAL_RCC_GetSysClockFreq>
 8001c1a:	4b7d      	ldr	r3, [pc, #500]	; (8001e10 <HAL_RCC_OscConfig+0x26c>)
 8001c1c:	689b      	ldr	r3, [r3, #8]
 8001c1e:	f3c3 1303 	ubfx	r3, r3, #4, #4
 8001c22:	4a7c      	ldr	r2, [pc, #496]	; (8001e14 <HAL_RCC_OscConfig+0x270>)
 8001c24:	5cd3      	ldrb	r3, [r2, r3]
 8001c26:	40d8      	lsrs	r0, r3
 8001c28:	4b7b      	ldr	r3, [pc, #492]	; (8001e18 <HAL_RCC_OscConfig+0x274>)
 8001c2a:	6018      	str	r0, [r3, #0]
        HAL_InitTick (TICK_INT_PRIORITY);
 8001c2c:	2000      	movs	r0, #0
 8001c2e:	f7ff fd07 	bl	8001640 <HAL_InitTick>
  if(((RCC_OscInitStruct->OscillatorType) & RCC_OSCILLATORTYPE_HSE) == RCC_OSCILLATORTYPE_HSE)
 8001c32:	6823      	ldr	r3, [r4, #0]
 8001c34:	f013 0f01 	tst.w	r3, #1
 8001c38:	f000 80a1 	beq.w	8001d7e <HAL_RCC_OscConfig+0x1da>
    if((__HAL_RCC_GET_SYSCLK_SOURCE() == RCC_CFGR_SWS_HSE) ||
 8001c3c:	4b74      	ldr	r3, [pc, #464]	; (8001e10 <HAL_RCC_OscConfig+0x26c>)
 8001c3e:	689b      	ldr	r3, [r3, #8]
 8001c40:	f003 030c 	and.w	r3, r3, #12
 8001c44:	2b08      	cmp	r3, #8
 8001c46:	f000 8091 	beq.w	8001d6c <HAL_RCC_OscConfig+0x1c8>
       ((__HAL_RCC_GET_SYSCLK_SOURCE() == RCC_CFGR_SWS_PLL) && (__HAL_RCC_GET_PLL_OSCSOURCE() == RCC_PLLSOURCE_HSE)))
 8001c4a:	4b71      	ldr	r3, [pc, #452]	; (8001e10 <HAL_RCC_OscConfig+0x26c>)
 8001c4c:	689b      	ldr	r3, [r3, #8]
 8001c4e:	f003 030c 	and.w	r3, r3, #12
    if((__HAL_RCC_GET_SYSCLK_SOURCE() == RCC_CFGR_SWS_HSE) ||
 8001c52:	2b0c      	cmp	r3, #12
 8001c54:	f000 8083 	beq.w	8001d5e <HAL_RCC_OscConfig+0x1ba>
      __HAL_RCC_HSE_CONFIG(RCC_OscInitStruct->HSEState);
 8001c58:	6863      	ldr	r3, [r4, #4]
 8001c5a:	f5b3 3f80 	cmp.w	r3, #65536	; 0x10000
 8001c5e:	f000 80b5 	beq.w	8001dcc <HAL_RCC_OscConfig+0x228>
 8001c62:	f5b3 2fa0 	cmp.w	r3, #327680	; 0x50000
 8001c66:	f000 80b7 	beq.w	8001dd8 <HAL_RCC_OscConfig+0x234>
 8001c6a:	4b69      	ldr	r3, [pc, #420]	; (8001e10 <HAL_RCC_OscConfig+0x26c>)
 8001c6c:	681a      	ldr	r2, [r3, #0]
 8001c6e:	f422 3280 	bic.w	r2, r2, #65536	; 0x10000
 8001c72:	601a      	str	r2, [r3, #0]
 8001c74:	681a      	ldr	r2, [r3, #0]
 8001c76:	f422 2280 	bic.w	r2, r2, #262144	; 0x40000
 8001c7a:	601a      	str	r2, [r3, #0]
      if(RCC_OscInitStruct->HSEState != RCC_HSE_OFF)
 8001c7c:	6863      	ldr	r3, [r4, #4]
 8001c7e:	2b00      	cmp	r3, #0
 8001c80:	f000 80b7 	beq.w	8001df2 <HAL_RCC_OscConfig+0x24e>
        tickstart = HAL_GetTick();
 8001c84:	f7ff fcfa 	bl	800167c <HAL_GetTick>
 8001c88:	4605      	mov	r5, r0
        while(READ_BIT(RCC->CR, RCC_CR_HSERDY) == RESET)
 8001c8a:	4b61      	ldr	r3, [pc, #388]	; (8001e10 <HAL_RCC_OscConfig+0x26c>)
 8001c8c:	681b      	ldr	r3, [r3, #0]
 8001c8e:	f413 3f00 	tst.w	r3, #131072	; 0x20000
 8001c92:	d174      	bne.n	8001d7e <HAL_RCC_OscConfig+0x1da>
          if((HAL_GetTick() - tickstart) > HSE_TIMEOUT_VALUE)
 8001c94:	f7ff fcf2 	bl	800167c <HAL_GetTick>
 8001c98:	1b40      	subs	r0, r0, r5
 8001c9a:	2864      	cmp	r0, #100	; 0x64
 8001c9c:	d9f5      	bls.n	8001c8a <HAL_RCC_OscConfig+0xe6>
            return HAL_TIMEOUT;
 8001c9e:	2003      	movs	r0, #3
 8001ca0:	e25f      	b.n	8002162 <HAL_RCC_OscConfig+0x5be>
        if(RCC_OscInitStruct->MSIClockRange > __HAL_RCC_GET_MSI_RANGE())
 8001ca2:	4b5b      	ldr	r3, [pc, #364]	; (8001e10 <HAL_RCC_OscConfig+0x26c>)
 8001ca4:	f8d3 3094 	ldr.w	r3, [r3, #148]	; 0x94
 8001ca8:	091b      	lsrs	r3, r3, #4
 8001caa:	f003 03f0 	and.w	r3, r3, #240	; 0xf0
 8001cae:	e799      	b.n	8001be4 <HAL_RCC_OscConfig+0x40>
          __HAL_RCC_MSI_RANGE_CONFIG(RCC_OscInitStruct->MSIClockRange);
 8001cb0:	4b57      	ldr	r3, [pc, #348]	; (8001e10 <HAL_RCC_OscConfig+0x26c>)
 8001cb2:	681a      	ldr	r2, [r3, #0]
 8001cb4:	f042 0208 	orr.w	r2, r2, #8
 8001cb8:	601a      	str	r2, [r3, #0]
 8001cba:	681a      	ldr	r2, [r3, #0]
 8001cbc:	f022 02f0 	bic.w	r2, r2, #240	; 0xf0
 8001cc0:	6a21      	ldr	r1, [r4, #32]
 8001cc2:	430a      	orrs	r2, r1
 8001cc4:	601a      	str	r2, [r3, #0]
          __HAL_RCC_MSI_CALIBRATIONVALUE_ADJUST(RCC_OscInitStruct->MSICalibrationValue);
 8001cc6:	685a      	ldr	r2, [r3, #4]
 8001cc8:	f422 427f 	bic.w	r2, r2, #65280	; 0xff00
 8001ccc:	69e1      	ldr	r1, [r4, #28]
 8001cce:	ea42 2201 	orr.w	r2, r2, r1, lsl #8
 8001cd2:	605a      	str	r2, [r3, #4]
          if(RCC_SetFlashLatencyFromMSIRange(RCC_OscInitStruct->MSIClockRange) != HAL_OK)
 8001cd4:	6a20      	ldr	r0, [r4, #32]
 8001cd6:	f7ff fe9d 	bl	8001a14 <RCC_SetFlashLatencyFromMSIRange>
 8001cda:	2800      	cmp	r0, #0
 8001cdc:	d09b      	beq.n	8001c16 <HAL_RCC_OscConfig+0x72>
            return HAL_ERROR;
 8001cde:	2001      	movs	r0, #1
 8001ce0:	e23f      	b.n	8002162 <HAL_RCC_OscConfig+0x5be>
      if(RCC_OscInitStruct->MSIState != RCC_MSI_OFF)
 8001ce2:	6983      	ldr	r3, [r0, #24]
 8001ce4:	b333      	cbz	r3, 8001d34 <HAL_RCC_OscConfig+0x190>
        __HAL_RCC_MSI_ENABLE();
 8001ce6:	4a4a      	ldr	r2, [pc, #296]	; (8001e10 <HAL_RCC_OscConfig+0x26c>)
 8001ce8:	6813      	ldr	r3, [r2, #0]
 8001cea:	f043 0301 	orr.w	r3, r3, #1
 8001cee:	6013      	str	r3, [r2, #0]
        tickstart = HAL_GetTick();
 8001cf0:	f7ff fcc4 	bl	800167c <HAL_GetTick>
 8001cf4:	4605      	mov	r5, r0
        while(READ_BIT(RCC->CR, RCC_CR_MSIRDY) == RESET)
 8001cf6:	4b46      	ldr	r3, [pc, #280]	; (8001e10 <HAL_RCC_OscConfig+0x26c>)
 8001cf8:	681b      	ldr	r3, [r3, #0]
 8001cfa:	f013 0f02 	tst.w	r3, #2
 8001cfe:	d106      	bne.n	8001d0e <HAL_RCC_OscConfig+0x16a>
          if((HAL_GetTick() - tickstart) > MSI_TIMEOUT_VALUE)
 8001d00:	f7ff fcbc 	bl	800167c <HAL_GetTick>
 8001d04:	1b40      	subs	r0, r0, r5
 8001d06:	2802      	cmp	r0, #2
 8001d08:	d9f5      	bls.n	8001cf6 <HAL_RCC_OscConfig+0x152>
            return HAL_TIMEOUT;
 8001d0a:	2003      	movs	r0, #3
 8001d0c:	e229      	b.n	8002162 <HAL_RCC_OscConfig+0x5be>
        __HAL_RCC_MSI_RANGE_CONFIG(RCC_OscInitStruct->MSIClockRange);
 8001d0e:	4b40      	ldr	r3, [pc, #256]	; (8001e10 <HAL_RCC_OscConfig+0x26c>)
 8001d10:	681a      	ldr	r2, [r3, #0]
 8001d12:	f042 0208 	orr.w	r2, r2, #8
 8001d16:	601a      	str	r2, [r3, #0]
 8001d18:	681a      	ldr	r2, [r3, #0]
 8001d1a:	f022 02f0 	bic.w	r2, r2, #240	; 0xf0
 8001d1e:	6a21      	ldr	r1, [r4, #32]
 8001d20:	430a      	orrs	r2, r1
 8001d22:	601a      	str	r2, [r3, #0]
        __HAL_RCC_MSI_CALIBRATIONVALUE_ADJUST(RCC_OscInitStruct->MSICalibrationValue);
 8001d24:	685a      	ldr	r2, [r3, #4]
 8001d26:	f422 427f 	bic.w	r2, r2, #65280	; 0xff00
 8001d2a:	69e1      	ldr	r1, [r4, #28]
 8001d2c:	ea42 2201 	orr.w	r2, r2, r1, lsl #8
 8001d30:	605a      	str	r2, [r3, #4]
 8001d32:	e77e      	b.n	8001c32 <HAL_RCC_OscConfig+0x8e>
        __HAL_RCC_MSI_DISABLE();
 8001d34:	4a36      	ldr	r2, [pc, #216]	; (8001e10 <HAL_RCC_OscConfig+0x26c>)
 8001d36:	6813      	ldr	r3, [r2, #0]
 8001d38:	f023 0301 	bic.w	r3, r3, #1
 8001d3c:	6013      	str	r3, [r2, #0]
        tickstart = HAL_GetTick();
 8001d3e:	f7ff fc9d 	bl	800167c <HAL_GetTick>
 8001d42:	4605      	mov	r5, r0
        while(READ_BIT(RCC->CR, RCC_CR_MSIRDY) != RESET)
 8001d44:	4b32      	ldr	r3, [pc, #200]	; (8001e10 <HAL_RCC_OscConfig+0x26c>)
 8001d46:	681b      	ldr	r3, [r3, #0]
 8001d48:	f013 0f02 	tst.w	r3, #2
 8001d4c:	f43f af71 	beq.w	8001c32 <HAL_RCC_OscConfig+0x8e>
          if((HAL_GetTick() - tickstart) > MSI_TIMEOUT_VALUE)
 8001d50:	f7ff fc94 	bl	800167c <HAL_GetTick>
 8001d54:	1b40      	subs	r0, r0, r5
 8001d56:	2802      	cmp	r0, #2
 8001d58:	d9f4      	bls.n	8001d44 <HAL_RCC_OscConfig+0x1a0>
            return HAL_TIMEOUT;
 8001d5a:	2003      	movs	r0, #3
 8001d5c:	e201      	b.n	8002162 <HAL_RCC_OscConfig+0x5be>
       ((__HAL_RCC_GET_SYSCLK_SOURCE() == RCC_CFGR_SWS_PLL) && (__HAL_RCC_GET_PLL_OSCSOURCE() == RCC_PLLSOURCE_HSE)))
 8001d5e:	4b2c      	ldr	r3, [pc, #176]	; (8001e10 <HAL_RCC_OscConfig+0x26c>)
 8001d60:	68db      	ldr	r3, [r3, #12]
 8001d62:	f003 0303 	and.w	r3, r3, #3
 8001d66:	2b03      	cmp	r3, #3
 8001d68:	f47f af76 	bne.w	8001c58 <HAL_RCC_OscConfig+0xb4>
      if((READ_BIT(RCC->CR, RCC_CR_HSERDY) != RESET) && (RCC_OscInitStruct->HSEState == RCC_HSE_OFF))
 8001d6c:	4b28      	ldr	r3, [pc, #160]	; (8001e10 <HAL_RCC_OscConfig+0x26c>)
 8001d6e:	681b      	ldr	r3, [r3, #0]
 8001d70:	f413 3f00 	tst.w	r3, #131072	; 0x20000
 8001d74:	d003      	beq.n	8001d7e <HAL_RCC_OscConfig+0x1da>
 8001d76:	6863      	ldr	r3, [r4, #4]
 8001d78:	2b00      	cmp	r3, #0
 8001d7a:	f000 81ed 	beq.w	8002158 <HAL_RCC_OscConfig+0x5b4>
  if(((RCC_OscInitStruct->OscillatorType) & RCC_OSCILLATORTYPE_HSI) == RCC_OSCILLATORTYPE_HSI)
 8001d7e:	6823      	ldr	r3, [r4, #0]
 8001d80:	f013 0f02 	tst.w	r3, #2
 8001d84:	d061      	beq.n	8001e4a <HAL_RCC_OscConfig+0x2a6>
    if((__HAL_RCC_GET_SYSCLK_SOURCE() == RCC_CFGR_SWS_HSI) ||
 8001d86:	4b22      	ldr	r3, [pc, #136]	; (8001e10 <HAL_RCC_OscConfig+0x26c>)
 8001d88:	689b      	ldr	r3, [r3, #8]
 8001d8a:	f003 030c 	and.w	r3, r3, #12
 8001d8e:	2b04      	cmp	r3, #4
 8001d90:	d04a      	beq.n	8001e28 <HAL_RCC_OscConfig+0x284>
       ((__HAL_RCC_GET_SYSCLK_SOURCE() == RCC_CFGR_SWS_PLL) && (__HAL_RCC_GET_PLL_OSCSOURCE() == RCC_PLLSOURCE_HSI)))
 8001d92:	4b1f      	ldr	r3, [pc, #124]	; (8001e10 <HAL_RCC_OscConfig+0x26c>)
 8001d94:	689b      	ldr	r3, [r3, #8]
 8001d96:	f003 030c 	and.w	r3, r3, #12
    if((__HAL_RCC_GET_SYSCLK_SOURCE() == RCC_CFGR_SWS_HSI) ||
 8001d9a:	2b0c      	cmp	r3, #12
 8001d9c:	d03e      	beq.n	8001e1c <HAL_RCC_OscConfig+0x278>
      if(RCC_OscInitStruct->HSIState != RCC_HSI_OFF)
 8001d9e:	68e3      	ldr	r3, [r4, #12]
 8001da0:	2b00      	cmp	r3, #0
 8001da2:	d078      	beq.n	8001e96 <HAL_RCC_OscConfig+0x2f2>
        __HAL_RCC_HSI_ENABLE();
 8001da4:	4a1a      	ldr	r2, [pc, #104]	; (8001e10 <HAL_RCC_OscConfig+0x26c>)
 8001da6:	6813      	ldr	r3, [r2, #0]
 8001da8:	f443 7380 	orr.w	r3, r3, #256	; 0x100
 8001dac:	6013      	str	r3, [r2, #0]
        tickstart = HAL_GetTick();
 8001dae:	f7ff fc65 	bl	800167c <HAL_GetTick>
 8001db2:	4605      	mov	r5, r0
        while(READ_BIT(RCC->CR, RCC_CR_HSIRDY) == RESET)
 8001db4:	4b16      	ldr	r3, [pc, #88]	; (8001e10 <HAL_RCC_OscConfig+0x26c>)
 8001db6:	681b      	ldr	r3, [r3, #0]
 8001db8:	f413 6f80 	tst.w	r3, #1024	; 0x400
 8001dbc:	d162      	bne.n	8001e84 <HAL_RCC_OscConfig+0x2e0>
          if((HAL_GetTick() - tickstart) > HSI_TIMEOUT_VALUE)
 8001dbe:	f7ff fc5d 	bl	800167c <HAL_GetTick>
 8001dc2:	1b40      	subs	r0, r0, r5
 8001dc4:	2802      	cmp	r0, #2
 8001dc6:	d9f5      	bls.n	8001db4 <HAL_RCC_OscConfig+0x210>
            return HAL_TIMEOUT;
 8001dc8:	2003      	movs	r0, #3
 8001dca:	e1ca      	b.n	8002162 <HAL_RCC_OscConfig+0x5be>
      __HAL_RCC_HSE_CONFIG(RCC_OscInitStruct->HSEState);
 8001dcc:	4a10      	ldr	r2, [pc, #64]	; (8001e10 <HAL_RCC_OscConfig+0x26c>)
 8001dce:	6813      	ldr	r3, [r2, #0]
 8001dd0:	f443 3380 	orr.w	r3, r3, #65536	; 0x10000
 8001dd4:	6013      	str	r3, [r2, #0]
 8001dd6:	e751      	b.n	8001c7c <HAL_RCC_OscConfig+0xd8>
 8001dd8:	f103 4380 	add.w	r3, r3, #1073741824	; 0x40000000
 8001ddc:	f5a3 333c 	sub.w	r3, r3, #192512	; 0x2f000
 8001de0:	681a      	ldr	r2, [r3, #0]
 8001de2:	f442 2280 	orr.w	r2, r2, #262144	; 0x40000
 8001de6:	601a      	str	r2, [r3, #0]
 8001de8:	681a      	ldr	r2, [r3, #0]
 8001dea:	f442 3280 	orr.w	r2, r2, #65536	; 0x10000
 8001dee:	601a      	str	r2, [r3, #0]
 8001df0:	e744      	b.n	8001c7c <HAL_RCC_OscConfig+0xd8>
        tickstart = HAL_GetTick();
 8001df2:	f7ff fc43 	bl	800167c <HAL_GetTick>
 8001df6:	4605      	mov	r5, r0
        while(READ_BIT(RCC->CR, RCC_CR_HSERDY) != RESET)
 8001df8:	4b05      	ldr	r3, [pc, #20]	; (8001e10 <HAL_RCC_OscConfig+0x26c>)
 8001dfa:	681b      	ldr	r3, [r3, #0]
 8001dfc:	f413 3f00 	tst.w	r3, #131072	; 0x20000
 8001e00:	d0bd      	beq.n	8001d7e <HAL_RCC_OscConfig+0x1da>
          if((HAL_GetTick() - tickstart) > HSE_TIMEOUT_VALUE)
 8001e02:	f7ff fc3b 	bl	800167c <HAL_GetTick>
 8001e06:	1b40      	subs	r0, r0, r5
 8001e08:	2864      	cmp	r0, #100	; 0x64
 8001e0a:	d9f5      	bls.n	8001df8 <HAL_RCC_OscConfig+0x254>
            return HAL_TIMEOUT;
 8001e0c:	2003      	movs	r0, #3
 8001e0e:	e1a8      	b.n	8002162 <HAL_RCC_OscConfig+0x5be>
 8001e10:	40021000 	.word	0x40021000
 8001e14:	080038fc 	.word	0x080038fc
 8001e18:	2000003c 	.word	0x2000003c
       ((__HAL_RCC_GET_SYSCLK_SOURCE() == RCC_CFGR_SWS_PLL) && (__HAL_RCC_GET_PLL_OSCSOURCE() == RCC_PLLSOURCE_HSI)))
 8001e1c:	4bb1      	ldr	r3, [pc, #708]	; (80020e4 <HAL_RCC_OscConfig+0x540>)
 8001e1e:	68db      	ldr	r3, [r3, #12]
 8001e20:	f003 0303 	and.w	r3, r3, #3
 8001e24:	2b02      	cmp	r3, #2
 8001e26:	d1ba      	bne.n	8001d9e <HAL_RCC_OscConfig+0x1fa>
      if((READ_BIT(RCC->CR, RCC_CR_HSIRDY) != RESET) && (RCC_OscInitStruct->HSIState == RCC_HSI_OFF))
 8001e28:	4bae      	ldr	r3, [pc, #696]	; (80020e4 <HAL_RCC_OscConfig+0x540>)
 8001e2a:	681b      	ldr	r3, [r3, #0]
 8001e2c:	f413 6f80 	tst.w	r3, #1024	; 0x400
 8001e30:	d003      	beq.n	8001e3a <HAL_RCC_OscConfig+0x296>
 8001e32:	68e3      	ldr	r3, [r4, #12]
 8001e34:	2b00      	cmp	r3, #0
 8001e36:	f000 8191 	beq.w	800215c <HAL_RCC_OscConfig+0x5b8>
        __HAL_RCC_HSI_CALIBRATIONVALUE_ADJUST(RCC_OscInitStruct->HSICalibrationValue);
 8001e3a:	4aaa      	ldr	r2, [pc, #680]	; (80020e4 <HAL_RCC_OscConfig+0x540>)
 8001e3c:	6853      	ldr	r3, [r2, #4]
 8001e3e:	f023 43fe 	bic.w	r3, r3, #2130706432	; 0x7f000000
 8001e42:	6921      	ldr	r1, [r4, #16]
 8001e44:	ea43 6301 	orr.w	r3, r3, r1, lsl #24
 8001e48:	6053      	str	r3, [r2, #4]
  if(((RCC_OscInitStruct->OscillatorType) & RCC_OSCILLATORTYPE_LSI) == RCC_OSCILLATORTYPE_LSI)
 8001e4a:	6823      	ldr	r3, [r4, #0]
 8001e4c:	f013 0f08 	tst.w	r3, #8
 8001e50:	d04c      	beq.n	8001eec <HAL_RCC_OscConfig+0x348>
    if(RCC_OscInitStruct->LSIState != RCC_LSI_OFF)
 8001e52:	6963      	ldr	r3, [r4, #20]
 8001e54:	b39b      	cbz	r3, 8001ebe <HAL_RCC_OscConfig+0x31a>
      __HAL_RCC_LSI_ENABLE();
 8001e56:	4aa3      	ldr	r2, [pc, #652]	; (80020e4 <HAL_RCC_OscConfig+0x540>)
 8001e58:	f8d2 3094 	ldr.w	r3, [r2, #148]	; 0x94
 8001e5c:	f043 0301 	orr.w	r3, r3, #1
 8001e60:	f8c2 3094 	str.w	r3, [r2, #148]	; 0x94
      tickstart = HAL_GetTick();
 8001e64:	f7ff fc0a 	bl	800167c <HAL_GetTick>
 8001e68:	4605      	mov	r5, r0
      while(READ_BIT(RCC->CSR, RCC_CSR_LSIRDY) == RESET)
 8001e6a:	4b9e      	ldr	r3, [pc, #632]	; (80020e4 <HAL_RCC_OscConfig+0x540>)
 8001e6c:	f8d3 3094 	ldr.w	r3, [r3, #148]	; 0x94
 8001e70:	f013 0f02 	tst.w	r3, #2
 8001e74:	d13a      	bne.n	8001eec <HAL_RCC_OscConfig+0x348>
        if((HAL_GetTick() - tickstart) > LSI_TIMEOUT_VALUE)
 8001e76:	f7ff fc01 	bl	800167c <HAL_GetTick>
 8001e7a:	1b40      	subs	r0, r0, r5
 8001e7c:	2802      	cmp	r0, #2
 8001e7e:	d9f4      	bls.n	8001e6a <HAL_RCC_OscConfig+0x2c6>
          return HAL_TIMEOUT;
 8001e80:	2003      	movs	r0, #3
 8001e82:	e16e      	b.n	8002162 <HAL_RCC_OscConfig+0x5be>
        __HAL_RCC_HSI_CALIBRATIONVALUE_ADJUST(RCC_OscInitStruct->HSICalibrationValue);
 8001e84:	4a97      	ldr	r2, [pc, #604]	; (80020e4 <HAL_RCC_OscConfig+0x540>)
 8001e86:	6853      	ldr	r3, [r2, #4]
 8001e88:	f023 43fe 	bic.w	r3, r3, #2130706432	; 0x7f000000
 8001e8c:	6921      	ldr	r1, [r4, #16]
 8001e8e:	ea43 6301 	orr.w	r3, r3, r1, lsl #24
 8001e92:	6053      	str	r3, [r2, #4]
 8001e94:	e7d9      	b.n	8001e4a <HAL_RCC_OscConfig+0x2a6>
        __HAL_RCC_HSI_DISABLE();
 8001e96:	4a93      	ldr	r2, [pc, #588]	; (80020e4 <HAL_RCC_OscConfig+0x540>)
 8001e98:	6813      	ldr	r3, [r2, #0]
 8001e9a:	f423 7380 	bic.w	r3, r3, #256	; 0x100
 8001e9e:	6013      	str	r3, [r2, #0]
        tickstart = HAL_GetTick();
 8001ea0:	f7ff fbec 	bl	800167c <HAL_GetTick>
 8001ea4:	4605      	mov	r5, r0
        while(READ_BIT(RCC->CR, RCC_CR_HSIRDY) != RESET)
 8001ea6:	4b8f      	ldr	r3, [pc, #572]	; (80020e4 <HAL_RCC_OscConfig+0x540>)
 8001ea8:	681b      	ldr	r3, [r3, #0]
 8001eaa:	f413 6f80 	tst.w	r3, #1024	; 0x400
 8001eae:	d0cc      	beq.n	8001e4a <HAL_RCC_OscConfig+0x2a6>
          if((HAL_GetTick() - tickstart) > HSI_TIMEOUT_VALUE)
 8001eb0:	f7ff fbe4 	bl	800167c <HAL_GetTick>
 8001eb4:	1b40      	subs	r0, r0, r5
 8001eb6:	2802      	cmp	r0, #2
 8001eb8:	d9f5      	bls.n	8001ea6 <HAL_RCC_OscConfig+0x302>
            return HAL_TIMEOUT;
 8001eba:	2003      	movs	r0, #3
 8001ebc:	e151      	b.n	8002162 <HAL_RCC_OscConfig+0x5be>
      __HAL_RCC_LSI_DISABLE();
 8001ebe:	4a89      	ldr	r2, [pc, #548]	; (80020e4 <HAL_RCC_OscConfig+0x540>)
 8001ec0:	f8d2 3094 	ldr.w	r3, [r2, #148]	; 0x94
 8001ec4:	f023 0301 	bic.w	r3, r3, #1
 8001ec8:	f8c2 3094 	str.w	r3, [r2, #148]	; 0x94
      tickstart = HAL_GetTick();
 8001ecc:	f7ff fbd6 	bl	800167c <HAL_GetTick>
 8001ed0:	4605      	mov	r5, r0
      while(READ_BIT(RCC->CSR, RCC_CSR_LSIRDY) != RESET)
 8001ed2:	4b84      	ldr	r3, [pc, #528]	; (80020e4 <HAL_RCC_OscConfig+0x540>)
 8001ed4:	f8d3 3094 	ldr.w	r3, [r3, #148]	; 0x94
 8001ed8:	f013 0f02 	tst.w	r3, #2
 8001edc:	d006      	beq.n	8001eec <HAL_RCC_OscConfig+0x348>
        if((HAL_GetTick() - tickstart) > LSI_TIMEOUT_VALUE)
 8001ede:	f7ff fbcd 	bl	800167c <HAL_GetTick>
 8001ee2:	1b40      	subs	r0, r0, r5
 8001ee4:	2802      	cmp	r0, #2
 8001ee6:	d9f4      	bls.n	8001ed2 <HAL_RCC_OscConfig+0x32e>
          return HAL_TIMEOUT;
 8001ee8:	2003      	movs	r0, #3
 8001eea:	e13a      	b.n	8002162 <HAL_RCC_OscConfig+0x5be>
  if(((RCC_OscInitStruct->OscillatorType) & RCC_OSCILLATORTYPE_LSE) == RCC_OSCILLATORTYPE_LSE)
 8001eec:	6823      	ldr	r3, [r4, #0]
 8001eee:	f013 0f04 	tst.w	r3, #4
 8001ef2:	d07a      	beq.n	8001fea <HAL_RCC_OscConfig+0x446>
    if(HAL_IS_BIT_CLR(RCC->APB1ENR1, RCC_APB1ENR1_PWREN))
 8001ef4:	4b7b      	ldr	r3, [pc, #492]	; (80020e4 <HAL_RCC_OscConfig+0x540>)
 8001ef6:	6d9b      	ldr	r3, [r3, #88]	; 0x58
 8001ef8:	f013 5f80 	tst.w	r3, #268435456	; 0x10000000
 8001efc:	d136      	bne.n	8001f6c <HAL_RCC_OscConfig+0x3c8>
      __HAL_RCC_PWR_CLK_ENABLE();
 8001efe:	4b79      	ldr	r3, [pc, #484]	; (80020e4 <HAL_RCC_OscConfig+0x540>)
 8001f00:	6d9a      	ldr	r2, [r3, #88]	; 0x58
 8001f02:	f042 5280 	orr.w	r2, r2, #268435456	; 0x10000000
 8001f06:	659a      	str	r2, [r3, #88]	; 0x58
 8001f08:	6d9b      	ldr	r3, [r3, #88]	; 0x58
 8001f0a:	f003 5380 	and.w	r3, r3, #268435456	; 0x10000000
 8001f0e:	9301      	str	r3, [sp, #4]
 8001f10:	9b01      	ldr	r3, [sp, #4]
      pwrclkchanged = SET;
 8001f12:	2501      	movs	r5, #1
    if(HAL_IS_BIT_CLR(PWR->CR1, PWR_CR1_DBP))
 8001f14:	4b74      	ldr	r3, [pc, #464]	; (80020e8 <HAL_RCC_OscConfig+0x544>)
 8001f16:	681b      	ldr	r3, [r3, #0]
 8001f18:	f413 7f80 	tst.w	r3, #256	; 0x100
 8001f1c:	d028      	beq.n	8001f70 <HAL_RCC_OscConfig+0x3cc>
    __HAL_RCC_LSE_CONFIG(RCC_OscInitStruct->LSEState);
 8001f1e:	68a3      	ldr	r3, [r4, #8]
 8001f20:	2b01      	cmp	r3, #1
 8001f22:	d039      	beq.n	8001f98 <HAL_RCC_OscConfig+0x3f4>
 8001f24:	2b05      	cmp	r3, #5
 8001f26:	d03f      	beq.n	8001fa8 <HAL_RCC_OscConfig+0x404>
 8001f28:	4b6e      	ldr	r3, [pc, #440]	; (80020e4 <HAL_RCC_OscConfig+0x540>)
 8001f2a:	f8d3 2090 	ldr.w	r2, [r3, #144]	; 0x90
 8001f2e:	f022 0201 	bic.w	r2, r2, #1
 8001f32:	f8c3 2090 	str.w	r2, [r3, #144]	; 0x90
 8001f36:	f8d3 2090 	ldr.w	r2, [r3, #144]	; 0x90
 8001f3a:	f022 0204 	bic.w	r2, r2, #4
 8001f3e:	f8c3 2090 	str.w	r2, [r3, #144]	; 0x90
    if(RCC_OscInitStruct->LSEState != RCC_LSE_OFF)
 8001f42:	68a3      	ldr	r3, [r4, #8]
 8001f44:	2b00      	cmp	r3, #0
 8001f46:	d03d      	beq.n	8001fc4 <HAL_RCC_OscConfig+0x420>
      tickstart = HAL_GetTick();
 8001f48:	f7ff fb98 	bl	800167c <HAL_GetTick>
 8001f4c:	4606      	mov	r6, r0
      while(READ_BIT(RCC->BDCR, RCC_BDCR_LSERDY) == RESET)
 8001f4e:	4b65      	ldr	r3, [pc, #404]	; (80020e4 <HAL_RCC_OscConfig+0x540>)
 8001f50:	f8d3 3090 	ldr.w	r3, [r3, #144]	; 0x90
 8001f54:	f013 0f02 	tst.w	r3, #2
 8001f58:	d146      	bne.n	8001fe8 <HAL_RCC_OscConfig+0x444>
        if((HAL_GetTick() - tickstart) > RCC_LSE_TIMEOUT_VALUE)
 8001f5a:	f7ff fb8f 	bl	800167c <HAL_GetTick>
 8001f5e:	1b80      	subs	r0, r0, r6
 8001f60:	f241 3388 	movw	r3, #5000	; 0x1388
 8001f64:	4298      	cmp	r0, r3
 8001f66:	d9f2      	bls.n	8001f4e <HAL_RCC_OscConfig+0x3aa>
          return HAL_TIMEOUT;
 8001f68:	2003      	movs	r0, #3
 8001f6a:	e0fa      	b.n	8002162 <HAL_RCC_OscConfig+0x5be>
    FlagStatus       pwrclkchanged = RESET;
 8001f6c:	2500      	movs	r5, #0
 8001f6e:	e7d1      	b.n	8001f14 <HAL_RCC_OscConfig+0x370>
      SET_BIT(PWR->CR1, PWR_CR1_DBP);
 8001f70:	4a5d      	ldr	r2, [pc, #372]	; (80020e8 <HAL_RCC_OscConfig+0x544>)
 8001f72:	6813      	ldr	r3, [r2, #0]
 8001f74:	f443 7380 	orr.w	r3, r3, #256	; 0x100
 8001f78:	6013      	str	r3, [r2, #0]
      tickstart = HAL_GetTick();
 8001f7a:	f7ff fb7f 	bl	800167c <HAL_GetTick>
 8001f7e:	4606      	mov	r6, r0
      while(HAL_IS_BIT_CLR(PWR->CR1, PWR_CR1_DBP))
 8001f80:	4b59      	ldr	r3, [pc, #356]	; (80020e8 <HAL_RCC_OscConfig+0x544>)
 8001f82:	681b      	ldr	r3, [r3, #0]
 8001f84:	f413 7f80 	tst.w	r3, #256	; 0x100
 8001f88:	d1c9      	bne.n	8001f1e <HAL_RCC_OscConfig+0x37a>
        if((HAL_GetTick() - tickstart) > RCC_DBP_TIMEOUT_VALUE)
 8001f8a:	f7ff fb77 	bl	800167c <HAL_GetTick>
 8001f8e:	1b80      	subs	r0, r0, r6
 8001f90:	2802      	cmp	r0, #2
 8001f92:	d9f5      	bls.n	8001f80 <HAL_RCC_OscConfig+0x3dc>
          return HAL_TIMEOUT;
 8001f94:	2003      	movs	r0, #3
 8001f96:	e0e4      	b.n	8002162 <HAL_RCC_OscConfig+0x5be>
    __HAL_RCC_LSE_CONFIG(RCC_OscInitStruct->LSEState);
 8001f98:	4a52      	ldr	r2, [pc, #328]	; (80020e4 <HAL_RCC_OscConfig+0x540>)
 8001f9a:	f8d2 3090 	ldr.w	r3, [r2, #144]	; 0x90
 8001f9e:	f043 0301 	orr.w	r3, r3, #1
 8001fa2:	f8c2 3090 	str.w	r3, [r2, #144]	; 0x90
 8001fa6:	e7cc      	b.n	8001f42 <HAL_RCC_OscConfig+0x39e>
 8001fa8:	4b4e      	ldr	r3, [pc, #312]	; (80020e4 <HAL_RCC_OscConfig+0x540>)
 8001faa:	f8d3 2090 	ldr.w	r2, [r3, #144]	; 0x90
 8001fae:	f042 0204 	orr.w	r2, r2, #4
 8001fb2:	f8c3 2090 	str.w	r2, [r3, #144]	; 0x90
 8001fb6:	f8d3 2090 	ldr.w	r2, [r3, #144]	; 0x90
 8001fba:	f042 0201 	orr.w	r2, r2, #1
 8001fbe:	f8c3 2090 	str.w	r2, [r3, #144]	; 0x90
 8001fc2:	e7be      	b.n	8001f42 <HAL_RCC_OscConfig+0x39e>
      tickstart = HAL_GetTick();
 8001fc4:	f7ff fb5a 	bl	800167c <HAL_GetTick>
 8001fc8:	4606      	mov	r6, r0
      while(READ_BIT(RCC->BDCR, RCC_BDCR_LSERDY) != RESET)
 8001fca:	4b46      	ldr	r3, [pc, #280]	; (80020e4 <HAL_RCC_OscConfig+0x540>)
 8001fcc:	f8d3 3090 	ldr.w	r3, [r3, #144]	; 0x90
 8001fd0:	f013 0f02 	tst.w	r3, #2
 8001fd4:	d008      	beq.n	8001fe8 <HAL_RCC_OscConfig+0x444>
        if((HAL_GetTick() - tickstart) > RCC_LSE_TIMEOUT_VALUE)
 8001fd6:	f7ff fb51 	bl	800167c <HAL_GetTick>
 8001fda:	1b80      	subs	r0, r0, r6
 8001fdc:	f241 3388 	movw	r3, #5000	; 0x1388
 8001fe0:	4298      	cmp	r0, r3
 8001fe2:	d9f2      	bls.n	8001fca <HAL_RCC_OscConfig+0x426>
          return HAL_TIMEOUT;
 8001fe4:	2003      	movs	r0, #3
 8001fe6:	e0bc      	b.n	8002162 <HAL_RCC_OscConfig+0x5be>
    if(pwrclkchanged == SET)
 8001fe8:	b9e5      	cbnz	r5, 8002024 <HAL_RCC_OscConfig+0x480>
  if(((RCC_OscInitStruct->OscillatorType) & RCC_OSCILLATORTYPE_HSI48) == RCC_OSCILLATORTYPE_HSI48)
 8001fea:	6823      	ldr	r3, [r4, #0]
 8001fec:	f013 0f20 	tst.w	r3, #32
 8001ff0:	d035      	beq.n	800205e <HAL_RCC_OscConfig+0x4ba>
    if(RCC_OscInitStruct->HSI48State != RCC_HSI48_OFF)
 8001ff2:	6a63      	ldr	r3, [r4, #36]	; 0x24
 8001ff4:	b1e3      	cbz	r3, 8002030 <HAL_RCC_OscConfig+0x48c>
      __HAL_RCC_HSI48_ENABLE();
 8001ff6:	4a3b      	ldr	r2, [pc, #236]	; (80020e4 <HAL_RCC_OscConfig+0x540>)
 8001ff8:	f8d2 3098 	ldr.w	r3, [r2, #152]	; 0x98
 8001ffc:	f043 0301 	orr.w	r3, r3, #1
 8002000:	f8c2 3098 	str.w	r3, [r2, #152]	; 0x98
      tickstart = HAL_GetTick();
 8002004:	f7ff fb3a 	bl	800167c <HAL_GetTick>
 8002008:	4605      	mov	r5, r0
      while(READ_BIT(RCC->CRRCR, RCC_CRRCR_HSI48RDY) == RESET)
 800200a:	4b36      	ldr	r3, [pc, #216]	; (80020e4 <HAL_RCC_OscConfig+0x540>)
 800200c:	f8d3 3098 	ldr.w	r3, [r3, #152]	; 0x98
 8002010:	f013 0f02 	tst.w	r3, #2
 8002014:	d123      	bne.n	800205e <HAL_RCC_OscConfig+0x4ba>
        if((HAL_GetTick() - tickstart) > HSI48_TIMEOUT_VALUE)
 8002016:	f7ff fb31 	bl	800167c <HAL_GetTick>
 800201a:	1b40      	subs	r0, r0, r5
 800201c:	2802      	cmp	r0, #2
 800201e:	d9f4      	bls.n	800200a <HAL_RCC_OscConfig+0x466>
          return HAL_TIMEOUT;
 8002020:	2003      	movs	r0, #3
 8002022:	e09e      	b.n	8002162 <HAL_RCC_OscConfig+0x5be>
      __HAL_RCC_PWR_CLK_DISABLE();
 8002024:	4a2f      	ldr	r2, [pc, #188]	; (80020e4 <HAL_RCC_OscConfig+0x540>)
 8002026:	6d93      	ldr	r3, [r2, #88]	; 0x58
 8002028:	f023 5380 	bic.w	r3, r3, #268435456	; 0x10000000
 800202c:	6593      	str	r3, [r2, #88]	; 0x58
 800202e:	e7dc      	b.n	8001fea <HAL_RCC_OscConfig+0x446>
      __HAL_RCC_HSI48_DISABLE();
 8002030:	4a2c      	ldr	r2, [pc, #176]	; (80020e4 <HAL_RCC_OscConfig+0x540>)
 8002032:	f8d2 3098 	ldr.w	r3, [r2, #152]	; 0x98
 8002036:	f023 0301 	bic.w	r3, r3, #1
 800203a:	f8c2 3098 	str.w	r3, [r2, #152]	; 0x98
      tickstart = HAL_GetTick();
 800203e:	f7ff fb1d 	bl	800167c <HAL_GetTick>
 8002042:	4605      	mov	r5, r0
      while(READ_BIT(RCC->CRRCR, RCC_CRRCR_HSI48RDY) != RESET)
 8002044:	4b27      	ldr	r3, [pc, #156]	; (80020e4 <HAL_RCC_OscConfig+0x540>)
 8002046:	f8d3 3098 	ldr.w	r3, [r3, #152]	; 0x98
 800204a:	f013 0f02 	tst.w	r3, #2
 800204e:	d006      	beq.n	800205e <HAL_RCC_OscConfig+0x4ba>
        if((HAL_GetTick() - tickstart) > HSI48_TIMEOUT_VALUE)
 8002050:	f7ff fb14 	bl	800167c <HAL_GetTick>
 8002054:	1b40      	subs	r0, r0, r5
 8002056:	2802      	cmp	r0, #2
 8002058:	d9f4      	bls.n	8002044 <HAL_RCC_OscConfig+0x4a0>
          return HAL_TIMEOUT;
 800205a:	2003      	movs	r0, #3
 800205c:	e081      	b.n	8002162 <HAL_RCC_OscConfig+0x5be>
  if(RCC_OscInitStruct->PLL.PLLState != RCC_PLL_NONE)
 800205e:	6aa3      	ldr	r3, [r4, #40]	; 0x28
 8002060:	2b00      	cmp	r3, #0
 8002062:	d07d      	beq.n	8002160 <HAL_RCC_OscConfig+0x5bc>
    if(__HAL_RCC_GET_SYSCLK_SOURCE() != RCC_CFGR_SWS_PLL)
 8002064:	4a1f      	ldr	r2, [pc, #124]	; (80020e4 <HAL_RCC_OscConfig+0x540>)
 8002066:	6892      	ldr	r2, [r2, #8]
 8002068:	f002 020c 	and.w	r2, r2, #12
 800206c:	2a0c      	cmp	r2, #12
 800206e:	d07a      	beq.n	8002166 <HAL_RCC_OscConfig+0x5c2>
      if(RCC_OscInitStruct->PLL.PLLState == RCC_PLL_ON)
 8002070:	2b02      	cmp	r3, #2
 8002072:	d023      	beq.n	80020bc <HAL_RCC_OscConfig+0x518>
        __HAL_RCC_PLL_DISABLE();
 8002074:	4b1b      	ldr	r3, [pc, #108]	; (80020e4 <HAL_RCC_OscConfig+0x540>)
 8002076:	681a      	ldr	r2, [r3, #0]
 8002078:	f022 7280 	bic.w	r2, r2, #16777216	; 0x1000000
 800207c:	601a      	str	r2, [r3, #0]
        if((READ_BIT(RCC->CR, RCC_CR_PLLSAI1RDY) == RESET)
 800207e:	681b      	ldr	r3, [r3, #0]
 8002080:	f013 6f00 	tst.w	r3, #134217728	; 0x8000000
 8002084:	d104      	bne.n	8002090 <HAL_RCC_OscConfig+0x4ec>
          MODIFY_REG(RCC->PLLCFGR, RCC_PLLCFGR_PLLSRC, RCC_PLLSOURCE_NONE);
 8002086:	4a17      	ldr	r2, [pc, #92]	; (80020e4 <HAL_RCC_OscConfig+0x540>)
 8002088:	68d3      	ldr	r3, [r2, #12]
 800208a:	f023 0303 	bic.w	r3, r3, #3
 800208e:	60d3      	str	r3, [r2, #12]
        __HAL_RCC_PLLCLKOUT_DISABLE(RCC_PLL_SYSCLK | RCC_PLL_48M1CLK | RCC_PLL_SAI2CLK);
 8002090:	4a14      	ldr	r2, [pc, #80]	; (80020e4 <HAL_RCC_OscConfig+0x540>)
 8002092:	68d3      	ldr	r3, [r2, #12]
 8002094:	f023 7388 	bic.w	r3, r3, #17825792	; 0x1100000
 8002098:	f423 3380 	bic.w	r3, r3, #65536	; 0x10000
 800209c:	60d3      	str	r3, [r2, #12]
        tickstart = HAL_GetTick();
 800209e:	f7ff faed 	bl	800167c <HAL_GetTick>
 80020a2:	4604      	mov	r4, r0
        while(READ_BIT(RCC->CR, RCC_CR_PLLRDY) != RESET)
 80020a4:	4b0f      	ldr	r3, [pc, #60]	; (80020e4 <HAL_RCC_OscConfig+0x540>)
 80020a6:	681b      	ldr	r3, [r3, #0]
 80020a8:	f013 7f00 	tst.w	r3, #33554432	; 0x2000000
 80020ac:	d04e      	beq.n	800214c <HAL_RCC_OscConfig+0x5a8>
          if((HAL_GetTick() - tickstart) > PLL_TIMEOUT_VALUE)
 80020ae:	f7ff fae5 	bl	800167c <HAL_GetTick>
 80020b2:	1b00      	subs	r0, r0, r4
 80020b4:	2802      	cmp	r0, #2
 80020b6:	d9f5      	bls.n	80020a4 <HAL_RCC_OscConfig+0x500>
            return HAL_TIMEOUT;
 80020b8:	2003      	movs	r0, #3
 80020ba:	e052      	b.n	8002162 <HAL_RCC_OscConfig+0x5be>
        __HAL_RCC_PLL_DISABLE();
 80020bc:	4a09      	ldr	r2, [pc, #36]	; (80020e4 <HAL_RCC_OscConfig+0x540>)
 80020be:	6813      	ldr	r3, [r2, #0]
 80020c0:	f023 7380 	bic.w	r3, r3, #16777216	; 0x1000000
 80020c4:	6013      	str	r3, [r2, #0]
        tickstart = HAL_GetTick();
 80020c6:	f7ff fad9 	bl	800167c <HAL_GetTick>
 80020ca:	4605      	mov	r5, r0
        while(READ_BIT(RCC->CR, RCC_CR_PLLRDY) != RESET)
 80020cc:	4b05      	ldr	r3, [pc, #20]	; (80020e4 <HAL_RCC_OscConfig+0x540>)
 80020ce:	681b      	ldr	r3, [r3, #0]
 80020d0:	f013 7f00 	tst.w	r3, #33554432	; 0x2000000
 80020d4:	d00a      	beq.n	80020ec <HAL_RCC_OscConfig+0x548>
          if((HAL_GetTick() - tickstart) > PLL_TIMEOUT_VALUE)
 80020d6:	f7ff fad1 	bl	800167c <HAL_GetTick>
 80020da:	1b40      	subs	r0, r0, r5
 80020dc:	2802      	cmp	r0, #2
 80020de:	d9f5      	bls.n	80020cc <HAL_RCC_OscConfig+0x528>
            return HAL_TIMEOUT;
 80020e0:	2003      	movs	r0, #3
 80020e2:	e03e      	b.n	8002162 <HAL_RCC_OscConfig+0x5be>
 80020e4:	40021000 	.word	0x40021000
 80020e8:	40007000 	.word	0x40007000
        __HAL_RCC_PLL_CONFIG(RCC_OscInitStruct->PLL.PLLSource,
 80020ec:	6b23      	ldr	r3, [r4, #48]	; 0x30
 80020ee:	1e5a      	subs	r2, r3, #1
 80020f0:	6b63      	ldr	r3, [r4, #52]	; 0x34
 80020f2:	021b      	lsls	r3, r3, #8
 80020f4:	ea43 1302 	orr.w	r3, r3, r2, lsl #4
 80020f8:	6ae2      	ldr	r2, [r4, #44]	; 0x2c
 80020fa:	4313      	orrs	r3, r2
 80020fc:	6be2      	ldr	r2, [r4, #60]	; 0x3c
 80020fe:	0852      	lsrs	r2, r2, #1
 8002100:	3a01      	subs	r2, #1
 8002102:	ea43 5342 	orr.w	r3, r3, r2, lsl #21
 8002106:	6c22      	ldr	r2, [r4, #64]	; 0x40
 8002108:	0852      	lsrs	r2, r2, #1
 800210a:	3a01      	subs	r2, #1
 800210c:	ea43 6342 	orr.w	r3, r3, r2, lsl #25
 8002110:	6ba2      	ldr	r2, [r4, #56]	; 0x38
 8002112:	ea43 63c2 	orr.w	r3, r3, r2, lsl #27
 8002116:	4a15      	ldr	r2, [pc, #84]	; (800216c <HAL_RCC_OscConfig+0x5c8>)
 8002118:	60d3      	str	r3, [r2, #12]
        __HAL_RCC_PLL_ENABLE();
 800211a:	6813      	ldr	r3, [r2, #0]
 800211c:	f043 7380 	orr.w	r3, r3, #16777216	; 0x1000000
 8002120:	6013      	str	r3, [r2, #0]
         __HAL_RCC_PLLCLKOUT_ENABLE(RCC_PLL_SYSCLK);
 8002122:	68d3      	ldr	r3, [r2, #12]
 8002124:	f043 7380 	orr.w	r3, r3, #16777216	; 0x1000000
 8002128:	60d3      	str	r3, [r2, #12]
        tickstart = HAL_GetTick();
 800212a:	f7ff faa7 	bl	800167c <HAL_GetTick>
 800212e:	4604      	mov	r4, r0
        while(READ_BIT(RCC->CR, RCC_CR_PLLRDY) == RESET)
 8002130:	4b0e      	ldr	r3, [pc, #56]	; (800216c <HAL_RCC_OscConfig+0x5c8>)
 8002132:	681b      	ldr	r3, [r3, #0]
 8002134:	f013 7f00 	tst.w	r3, #33554432	; 0x2000000
 8002138:	d106      	bne.n	8002148 <HAL_RCC_OscConfig+0x5a4>
          if((HAL_GetTick() - tickstart) > PLL_TIMEOUT_VALUE)
 800213a:	f7ff fa9f 	bl	800167c <HAL_GetTick>
 800213e:	1b00      	subs	r0, r0, r4
 8002140:	2802      	cmp	r0, #2
 8002142:	d9f5      	bls.n	8002130 <HAL_RCC_OscConfig+0x58c>
            return HAL_TIMEOUT;
 8002144:	2003      	movs	r0, #3
 8002146:	e00c      	b.n	8002162 <HAL_RCC_OscConfig+0x5be>
  return HAL_OK;
 8002148:	2000      	movs	r0, #0
 800214a:	e00a      	b.n	8002162 <HAL_RCC_OscConfig+0x5be>
 800214c:	2000      	movs	r0, #0
 800214e:	e008      	b.n	8002162 <HAL_RCC_OscConfig+0x5be>
        return HAL_ERROR;
 8002150:	2001      	movs	r0, #1
 8002152:	e006      	b.n	8002162 <HAL_RCC_OscConfig+0x5be>
            return HAL_ERROR;
 8002154:	2001      	movs	r0, #1
 8002156:	e004      	b.n	8002162 <HAL_RCC_OscConfig+0x5be>
        return HAL_ERROR;
 8002158:	2001      	movs	r0, #1
 800215a:	e002      	b.n	8002162 <HAL_RCC_OscConfig+0x5be>
        return HAL_ERROR;
 800215c:	2001      	movs	r0, #1
 800215e:	e000      	b.n	8002162 <HAL_RCC_OscConfig+0x5be>
  return HAL_OK;
 8002160:	2000      	movs	r0, #0
}
 8002162:	b002      	add	sp, #8
 8002164:	bd70      	pop	{r4, r5, r6, pc}
      return HAL_ERROR;
 8002166:	2001      	movs	r0, #1
 8002168:	e7fb      	b.n	8002162 <HAL_RCC_OscConfig+0x5be>
 800216a:	bf00      	nop
 800216c:	40021000 	.word	0x40021000

08002170 <HAL_RCC_ClockConfig>:
  if(FLatency > READ_BIT(FLASH->ACR, FLASH_ACR_LATENCY))
 8002170:	4b66      	ldr	r3, [pc, #408]	; (800230c <HAL_RCC_ClockConfig+0x19c>)
 8002172:	681b      	ldr	r3, [r3, #0]
 8002174:	f003 0307 	and.w	r3, r3, #7
 8002178:	428b      	cmp	r3, r1
 800217a:	d20c      	bcs.n	8002196 <HAL_RCC_ClockConfig+0x26>
    __HAL_FLASH_SET_LATENCY(FLatency);
 800217c:	4a63      	ldr	r2, [pc, #396]	; (800230c <HAL_RCC_ClockConfig+0x19c>)
 800217e:	6813      	ldr	r3, [r2, #0]
 8002180:	f023 0307 	bic.w	r3, r3, #7
 8002184:	430b      	orrs	r3, r1
 8002186:	6013      	str	r3, [r2, #0]
    if(READ_BIT(FLASH->ACR, FLASH_ACR_LATENCY) != FLatency)
 8002188:	6813      	ldr	r3, [r2, #0]
 800218a:	f003 0307 	and.w	r3, r3, #7
 800218e:	4299      	cmp	r1, r3
 8002190:	d001      	beq.n	8002196 <HAL_RCC_ClockConfig+0x26>
      return HAL_ERROR;
 8002192:	2001      	movs	r0, #1
 8002194:	4770      	bx	lr
{
 8002196:	b570      	push	{r4, r5, r6, lr}
 8002198:	460d      	mov	r5, r1
 800219a:	4604      	mov	r4, r0
  if(((RCC_ClkInitStruct->ClockType) & RCC_CLOCKTYPE_SYSCLK) == RCC_CLOCKTYPE_SYSCLK)
 800219c:	6803      	ldr	r3, [r0, #0]
 800219e:	f013 0f01 	tst.w	r3, #1
 80021a2:	d06c      	beq.n	800227e <HAL_RCC_ClockConfig+0x10e>
    if(RCC_ClkInitStruct->SYSCLKSource == RCC_SYSCLKSOURCE_PLLCLK)
 80021a4:	6843      	ldr	r3, [r0, #4]
 80021a6:	2b03      	cmp	r3, #3
 80021a8:	d00a      	beq.n	80021c0 <HAL_RCC_ClockConfig+0x50>
      if(RCC_ClkInitStruct->SYSCLKSource == RCC_SYSCLKSOURCE_HSE)
 80021aa:	2b02      	cmp	r3, #2
 80021ac:	d02d      	beq.n	800220a <HAL_RCC_ClockConfig+0x9a>
      else if(RCC_ClkInitStruct->SYSCLKSource == RCC_SYSCLKSOURCE_MSI)
 80021ae:	2b00      	cmp	r3, #0
 80021b0:	d132      	bne.n	8002218 <HAL_RCC_ClockConfig+0xa8>
        if(READ_BIT(RCC->CR, RCC_CR_MSIRDY) == RESET)
 80021b2:	4a57      	ldr	r2, [pc, #348]	; (8002310 <HAL_RCC_ClockConfig+0x1a0>)
 80021b4:	6812      	ldr	r2, [r2, #0]
 80021b6:	f012 0f02 	tst.w	r2, #2
 80021ba:	d107      	bne.n	80021cc <HAL_RCC_ClockConfig+0x5c>
          return HAL_ERROR;
 80021bc:	2001      	movs	r0, #1
 80021be:	bd70      	pop	{r4, r5, r6, pc}
      if(READ_BIT(RCC->CR, RCC_CR_PLLRDY) == RESET)
 80021c0:	4a53      	ldr	r2, [pc, #332]	; (8002310 <HAL_RCC_ClockConfig+0x1a0>)
 80021c2:	6812      	ldr	r2, [r2, #0]
 80021c4:	f012 7f00 	tst.w	r2, #33554432	; 0x2000000
 80021c8:	f000 809e 	beq.w	8002308 <HAL_RCC_ClockConfig+0x198>
    MODIFY_REG(RCC->CFGR, RCC_CFGR_SW, RCC_ClkInitStruct->SYSCLKSource);
 80021cc:	4950      	ldr	r1, [pc, #320]	; (8002310 <HAL_RCC_ClockConfig+0x1a0>)
 80021ce:	688a      	ldr	r2, [r1, #8]
 80021d0:	f022 0203 	bic.w	r2, r2, #3
 80021d4:	4313      	orrs	r3, r2
 80021d6:	608b      	str	r3, [r1, #8]
    tickstart = HAL_GetTick();
 80021d8:	f7ff fa50 	bl	800167c <HAL_GetTick>
 80021dc:	4606      	mov	r6, r0
    if(RCC_ClkInitStruct->SYSCLKSource == RCC_SYSCLKSOURCE_PLLCLK)
 80021de:	6863      	ldr	r3, [r4, #4]
 80021e0:	2b03      	cmp	r3, #3
 80021e2:	d020      	beq.n	8002226 <HAL_RCC_ClockConfig+0xb6>
      if(RCC_ClkInitStruct->SYSCLKSource == RCC_SYSCLKSOURCE_HSE)
 80021e4:	2b02      	cmp	r3, #2
 80021e6:	d02d      	beq.n	8002244 <HAL_RCC_ClockConfig+0xd4>
      else if(RCC_ClkInitStruct->SYSCLKSource == RCC_SYSCLKSOURCE_MSI)
 80021e8:	2b00      	cmp	r3, #0
 80021ea:	d03a      	beq.n	8002262 <HAL_RCC_ClockConfig+0xf2>
        while(__HAL_RCC_GET_SYSCLK_SOURCE() != RCC_CFGR_SWS_HSI)
 80021ec:	4b48      	ldr	r3, [pc, #288]	; (8002310 <HAL_RCC_ClockConfig+0x1a0>)
 80021ee:	689b      	ldr	r3, [r3, #8]
 80021f0:	f003 030c 	and.w	r3, r3, #12
 80021f4:	2b04      	cmp	r3, #4
 80021f6:	d042      	beq.n	800227e <HAL_RCC_ClockConfig+0x10e>
          if((HAL_GetTick() - tickstart) > CLOCKSWITCH_TIMEOUT_VALUE)
 80021f8:	f7ff fa40 	bl	800167c <HAL_GetTick>
 80021fc:	1b80      	subs	r0, r0, r6
 80021fe:	f241 3388 	movw	r3, #5000	; 0x1388
 8002202:	4298      	cmp	r0, r3
 8002204:	d9f2      	bls.n	80021ec <HAL_RCC_ClockConfig+0x7c>
            return HAL_TIMEOUT;
 8002206:	2003      	movs	r0, #3
 8002208:	bd70      	pop	{r4, r5, r6, pc}
        if(READ_BIT(RCC->CR, RCC_CR_HSERDY) == RESET)
 800220a:	4a41      	ldr	r2, [pc, #260]	; (8002310 <HAL_RCC_ClockConfig+0x1a0>)
 800220c:	6812      	ldr	r2, [r2, #0]
 800220e:	f412 3f00 	tst.w	r2, #131072	; 0x20000
 8002212:	d1db      	bne.n	80021cc <HAL_RCC_ClockConfig+0x5c>
          return HAL_ERROR;
 8002214:	2001      	movs	r0, #1
 8002216:	bd70      	pop	{r4, r5, r6, pc}
        if(READ_BIT(RCC->CR, RCC_CR_HSIRDY) == RESET)
 8002218:	4a3d      	ldr	r2, [pc, #244]	; (8002310 <HAL_RCC_ClockConfig+0x1a0>)
 800221a:	6812      	ldr	r2, [r2, #0]
 800221c:	f412 6f80 	tst.w	r2, #1024	; 0x400
 8002220:	d1d4      	bne.n	80021cc <HAL_RCC_ClockConfig+0x5c>
          return HAL_ERROR;
 8002222:	2001      	movs	r0, #1
 8002224:	bd70      	pop	{r4, r5, r6, pc}
      while (__HAL_RCC_GET_SYSCLK_SOURCE() != RCC_CFGR_SWS_PLL)
 8002226:	4b3a      	ldr	r3, [pc, #232]	; (8002310 <HAL_RCC_ClockConfig+0x1a0>)
 8002228:	689b      	ldr	r3, [r3, #8]
 800222a:	f003 030c 	and.w	r3, r3, #12
 800222e:	2b0c      	cmp	r3, #12
 8002230:	d025      	beq.n	800227e <HAL_RCC_ClockConfig+0x10e>
        if((HAL_GetTick() - tickstart) > CLOCKSWITCH_TIMEOUT_VALUE)
 8002232:	f7ff fa23 	bl	800167c <HAL_GetTick>
 8002236:	1b80      	subs	r0, r0, r6
 8002238:	f241 3388 	movw	r3, #5000	; 0x1388
 800223c:	4298      	cmp	r0, r3
 800223e:	d9f2      	bls.n	8002226 <HAL_RCC_ClockConfig+0xb6>
          return HAL_TIMEOUT;
 8002240:	2003      	movs	r0, #3
 8002242:	bd70      	pop	{r4, r5, r6, pc}
        while (__HAL_RCC_GET_SYSCLK_SOURCE() != RCC_CFGR_SWS_HSE)
 8002244:	4b32      	ldr	r3, [pc, #200]	; (8002310 <HAL_RCC_ClockConfig+0x1a0>)
 8002246:	689b      	ldr	r3, [r3, #8]
 8002248:	f003 030c 	and.w	r3, r3, #12
 800224c:	2b08      	cmp	r3, #8
 800224e:	d016      	beq.n	800227e <HAL_RCC_ClockConfig+0x10e>
          if((HAL_GetTick() - tickstart) > CLOCKSWITCH_TIMEOUT_VALUE)
 8002250:	f7ff fa14 	bl	800167c <HAL_GetTick>
 8002254:	1b80      	subs	r0, r0, r6
 8002256:	f241 3388 	movw	r3, #5000	; 0x1388
 800225a:	4298      	cmp	r0, r3
 800225c:	d9f2      	bls.n	8002244 <HAL_RCC_ClockConfig+0xd4>
            return HAL_TIMEOUT;
 800225e:	2003      	movs	r0, #3
 8002260:	bd70      	pop	{r4, r5, r6, pc}
        while (__HAL_RCC_GET_SYSCLK_SOURCE() != RCC_CFGR_SWS_MSI)
 8002262:	4b2b      	ldr	r3, [pc, #172]	; (8002310 <HAL_RCC_ClockConfig+0x1a0>)
 8002264:	689b      	ldr	r3, [r3, #8]
 8002266:	f013 0f0c 	tst.w	r3, #12
 800226a:	d008      	beq.n	800227e <HAL_RCC_ClockConfig+0x10e>
          if((HAL_GetTick() - tickstart) > CLOCKSWITCH_TIMEOUT_VALUE)
 800226c:	f7ff fa06 	bl	800167c <HAL_GetTick>
 8002270:	1b80      	subs	r0, r0, r6
 8002272:	f241 3388 	movw	r3, #5000	; 0x1388
 8002276:	4298      	cmp	r0, r3
 8002278:	d9f3      	bls.n	8002262 <HAL_RCC_ClockConfig+0xf2>
            return HAL_TIMEOUT;
 800227a:	2003      	movs	r0, #3
 800227c:	bd70      	pop	{r4, r5, r6, pc}
  if(((RCC_ClkInitStruct->ClockType) & RCC_CLOCKTYPE_HCLK) == RCC_CLOCKTYPE_HCLK)
 800227e:	6823      	ldr	r3, [r4, #0]
 8002280:	f013 0f02 	tst.w	r3, #2
 8002284:	d006      	beq.n	8002294 <HAL_RCC_ClockConfig+0x124>
    MODIFY_REG(RCC->CFGR, RCC_CFGR_HPRE, RCC_ClkInitStruct->AHBCLKDivider);
 8002286:	4a22      	ldr	r2, [pc, #136]	; (8002310 <HAL_RCC_ClockConfig+0x1a0>)
 8002288:	6893      	ldr	r3, [r2, #8]
 800228a:	f023 03f0 	bic.w	r3, r3, #240	; 0xf0
 800228e:	68a1      	ldr	r1, [r4, #8]
 8002290:	430b      	orrs	r3, r1
 8002292:	6093      	str	r3, [r2, #8]
  if(FLatency < READ_BIT(FLASH->ACR, FLASH_ACR_LATENCY))
 8002294:	4b1d      	ldr	r3, [pc, #116]	; (800230c <HAL_RCC_ClockConfig+0x19c>)
 8002296:	681b      	ldr	r3, [r3, #0]
 8002298:	f003 0307 	and.w	r3, r3, #7
 800229c:	429d      	cmp	r5, r3
 800229e:	d20c      	bcs.n	80022ba <HAL_RCC_ClockConfig+0x14a>
    __HAL_FLASH_SET_LATENCY(FLatency);
 80022a0:	4a1a      	ldr	r2, [pc, #104]	; (800230c <HAL_RCC_ClockConfig+0x19c>)
 80022a2:	6813      	ldr	r3, [r2, #0]
 80022a4:	f023 0307 	bic.w	r3, r3, #7
 80022a8:	432b      	orrs	r3, r5
 80022aa:	6013      	str	r3, [r2, #0]
    if(READ_BIT(FLASH->ACR, FLASH_ACR_LATENCY) != FLatency)
 80022ac:	6813      	ldr	r3, [r2, #0]
 80022ae:	f003 0307 	and.w	r3, r3, #7
 80022b2:	429d      	cmp	r5, r3
 80022b4:	d001      	beq.n	80022ba <HAL_RCC_ClockConfig+0x14a>
      return HAL_ERROR;
 80022b6:	2001      	movs	r0, #1
}
 80022b8:	bd70      	pop	{r4, r5, r6, pc}
  if(((RCC_ClkInitStruct->ClockType) & RCC_CLOCKTYPE_PCLK1) == RCC_CLOCKTYPE_PCLK1)
 80022ba:	6823      	ldr	r3, [r4, #0]
 80022bc:	f013 0f04 	tst.w	r3, #4
 80022c0:	d006      	beq.n	80022d0 <HAL_RCC_ClockConfig+0x160>
    MODIFY_REG(RCC->CFGR, RCC_CFGR_PPRE1, RCC_ClkInitStruct->APB1CLKDivider);
 80022c2:	4a13      	ldr	r2, [pc, #76]	; (8002310 <HAL_RCC_ClockConfig+0x1a0>)
 80022c4:	6893      	ldr	r3, [r2, #8]
 80022c6:	f423 63e0 	bic.w	r3, r3, #1792	; 0x700
 80022ca:	68e1      	ldr	r1, [r4, #12]
 80022cc:	430b      	orrs	r3, r1
 80022ce:	6093      	str	r3, [r2, #8]
  if(((RCC_ClkInitStruct->ClockType) & RCC_CLOCKTYPE_PCLK2) == RCC_CLOCKTYPE_PCLK2)
 80022d0:	6823      	ldr	r3, [r4, #0]
 80022d2:	f013 0f08 	tst.w	r3, #8
 80022d6:	d007      	beq.n	80022e8 <HAL_RCC_ClockConfig+0x178>
    MODIFY_REG(RCC->CFGR, RCC_CFGR_PPRE2, ((RCC_ClkInitStruct->APB2CLKDivider) << 3U));
 80022d8:	4a0d      	ldr	r2, [pc, #52]	; (8002310 <HAL_RCC_ClockConfig+0x1a0>)
 80022da:	6893      	ldr	r3, [r2, #8]
 80022dc:	f423 5360 	bic.w	r3, r3, #14336	; 0x3800
 80022e0:	6921      	ldr	r1, [r4, #16]
 80022e2:	ea43 03c1 	orr.w	r3, r3, r1, lsl #3
 80022e6:	6093      	str	r3, [r2, #8]
  SystemCoreClock = HAL_RCC_GetSysClockFreq() >> AHBPrescTable[READ_BIT(RCC->CFGR, RCC_CFGR_HPRE) >> RCC_CFGR_HPRE_Pos];
 80022e8:	f7ff fbdc 	bl	8001aa4 <HAL_RCC_GetSysClockFreq>
 80022ec:	4b08      	ldr	r3, [pc, #32]	; (8002310 <HAL_RCC_ClockConfig+0x1a0>)
 80022ee:	689b      	ldr	r3, [r3, #8]
 80022f0:	f3c3 1303 	ubfx	r3, r3, #4, #4
 80022f4:	4a07      	ldr	r2, [pc, #28]	; (8002314 <HAL_RCC_ClockConfig+0x1a4>)
 80022f6:	5cd3      	ldrb	r3, [r2, r3]
 80022f8:	40d8      	lsrs	r0, r3
 80022fa:	4b07      	ldr	r3, [pc, #28]	; (8002318 <HAL_RCC_ClockConfig+0x1a8>)
 80022fc:	6018      	str	r0, [r3, #0]
  HAL_InitTick (TICK_INT_PRIORITY);
 80022fe:	2000      	movs	r0, #0
 8002300:	f7ff f99e 	bl	8001640 <HAL_InitTick>
  return HAL_OK;
 8002304:	2000      	movs	r0, #0
 8002306:	bd70      	pop	{r4, r5, r6, pc}
        return HAL_ERROR;
 8002308:	2001      	movs	r0, #1
 800230a:	bd70      	pop	{r4, r5, r6, pc}
 800230c:	40022000 	.word	0x40022000
 8002310:	40021000 	.word	0x40021000
 8002314:	080038fc 	.word	0x080038fc
 8002318:	2000003c 	.word	0x2000003c

0800231c <HAL_RCC_GetHCLKFreq>:
}
 800231c:	4b01      	ldr	r3, [pc, #4]	; (8002324 <HAL_RCC_GetHCLKFreq+0x8>)
 800231e:	6818      	ldr	r0, [r3, #0]
 8002320:	4770      	bx	lr
 8002322:	bf00      	nop
 8002324:	2000003c 	.word	0x2000003c

08002328 <HAL_RCC_GetPCLK1Freq>:
{
 8002328:	b508      	push	{r3, lr}
  return (HAL_RCC_GetHCLKFreq() >> APBPrescTable[READ_BIT(RCC->CFGR, RCC_CFGR_PPRE1) >> RCC_CFGR_PPRE1_Pos]);
 800232a:	f7ff fff7 	bl	800231c <HAL_RCC_GetHCLKFreq>
 800232e:	4b04      	ldr	r3, [pc, #16]	; (8002340 <HAL_RCC_GetPCLK1Freq+0x18>)
 8002330:	689b      	ldr	r3, [r3, #8]
 8002332:	f3c3 2302 	ubfx	r3, r3, #8, #3
 8002336:	4a03      	ldr	r2, [pc, #12]	; (8002344 <HAL_RCC_GetPCLK1Freq+0x1c>)
 8002338:	5cd3      	ldrb	r3, [r2, r3]
}
 800233a:	40d8      	lsrs	r0, r3
 800233c:	bd08      	pop	{r3, pc}
 800233e:	bf00      	nop
 8002340:	40021000 	.word	0x40021000
 8002344:	0800390c 	.word	0x0800390c

08002348 <HAL_RCC_GetPCLK2Freq>:
{
 8002348:	b508      	push	{r3, lr}
  return (HAL_RCC_GetHCLKFreq()>> APBPrescTable[READ_BIT(RCC->CFGR, RCC_CFGR_PPRE2) >> RCC_CFGR_PPRE2_Pos]);
 800234a:	f7ff ffe7 	bl	800231c <HAL_RCC_GetHCLKFreq>
 800234e:	4b04      	ldr	r3, [pc, #16]	; (8002360 <HAL_RCC_GetPCLK2Freq+0x18>)
 8002350:	689b      	ldr	r3, [r3, #8]
 8002352:	f3c3 23c2 	ubfx	r3, r3, #11, #3
 8002356:	4a03      	ldr	r2, [pc, #12]	; (8002364 <HAL_RCC_GetPCLK2Freq+0x1c>)
 8002358:	5cd3      	ldrb	r3, [r2, r3]
}
 800235a:	40d8      	lsrs	r0, r3
 800235c:	bd08      	pop	{r3, pc}
 800235e:	bf00      	nop
 8002360:	40021000 	.word	0x40021000
 8002364:	0800390c 	.word	0x0800390c

08002368 <SPI_WaitFlagStateUntilTimeout>:
  * @param  Tickstart tick start value
  * @retval HAL status
  */
static HAL_StatusTypeDef SPI_WaitFlagStateUntilTimeout(SPI_HandleTypeDef *hspi, uint32_t Flag, uint32_t State,
                                                       uint32_t Timeout, uint32_t Tickstart)
{
 8002368:	b5f8      	push	{r3, r4, r5, r6, r7, lr}
 800236a:	4605      	mov	r5, r0
 800236c:	460f      	mov	r7, r1
 800236e:	4616      	mov	r6, r2
 8002370:	461c      	mov	r4, r3
  while ((__HAL_SPI_GET_FLAG(hspi, Flag) ? SET : RESET) != State)
 8002372:	e039      	b.n	80023e8 <SPI_WaitFlagStateUntilTimeout+0x80>
  {
    if (Timeout != HAL_MAX_DELAY)
    {
      if ((Timeout == 0U) || ((HAL_GetTick() - Tickstart) >= Timeout))
 8002374:	b12c      	cbz	r4, 8002382 <SPI_WaitFlagStateUntilTimeout+0x1a>
 8002376:	f7ff f981 	bl	800167c <HAL_GetTick>
 800237a:	9b06      	ldr	r3, [sp, #24]
 800237c:	1ac0      	subs	r0, r0, r3
 800237e:	4284      	cmp	r4, r0
 8002380:	d832      	bhi.n	80023e8 <SPI_WaitFlagStateUntilTimeout+0x80>
        /* Disable the SPI and reset the CRC: the CRC value should be cleared
        on both master and slave sides in order to resynchronize the master
        and slave for their respective CRC calculation */

        /* Disable TXE, RXNE and ERR interrupts for the interrupt process */
        __HAL_SPI_DISABLE_IT(hspi, (SPI_IT_TXE | SPI_IT_RXNE | SPI_IT_ERR));
 8002382:	682a      	ldr	r2, [r5, #0]
 8002384:	6853      	ldr	r3, [r2, #4]
 8002386:	f023 03e0 	bic.w	r3, r3, #224	; 0xe0
 800238a:	6053      	str	r3, [r2, #4]

        if ((hspi->Init.Mode == SPI_MODE_MASTER) && ((hspi->Init.Direction == SPI_DIRECTION_1LINE)
 800238c:	686b      	ldr	r3, [r5, #4]
 800238e:	f5b3 7f82 	cmp.w	r3, #260	; 0x104
 8002392:	d00b      	beq.n	80023ac <SPI_WaitFlagStateUntilTimeout+0x44>
          /* Disable SPI peripheral */
          __HAL_SPI_DISABLE(hspi);
        }

        /* Reset CRC Calculation */
        if (hspi->Init.CRCCalculation == SPI_CRCCALCULATION_ENABLE)
 8002394:	6aab      	ldr	r3, [r5, #40]	; 0x28
 8002396:	f5b3 5f00 	cmp.w	r3, #8192	; 0x2000
 800239a:	d014      	beq.n	80023c6 <SPI_WaitFlagStateUntilTimeout+0x5e>
        {
          SPI_RESET_CRC(hspi);
        }

        hspi->State = HAL_SPI_STATE_READY;
 800239c:	2301      	movs	r3, #1
 800239e:	f885 305d 	strb.w	r3, [r5, #93]	; 0x5d

        /* Process Unlocked */
        __HAL_UNLOCK(hspi);
 80023a2:	2300      	movs	r3, #0
 80023a4:	f885 305c 	strb.w	r3, [r5, #92]	; 0x5c

        return HAL_TIMEOUT;
 80023a8:	2003      	movs	r0, #3
 80023aa:	bdf8      	pop	{r3, r4, r5, r6, r7, pc}
        if ((hspi->Init.Mode == SPI_MODE_MASTER) && ((hspi->Init.Direction == SPI_DIRECTION_1LINE)
 80023ac:	68ab      	ldr	r3, [r5, #8]
 80023ae:	f5b3 4f00 	cmp.w	r3, #32768	; 0x8000
 80023b2:	d002      	beq.n	80023ba <SPI_WaitFlagStateUntilTimeout+0x52>
                                                     || (hspi->Init.Direction == SPI_DIRECTION_2LINES_RXONLY)))
 80023b4:	f5b3 6f80 	cmp.w	r3, #1024	; 0x400
 80023b8:	d1ec      	bne.n	8002394 <SPI_WaitFlagStateUntilTimeout+0x2c>
          __HAL_SPI_DISABLE(hspi);
 80023ba:	682a      	ldr	r2, [r5, #0]
 80023bc:	6813      	ldr	r3, [r2, #0]
 80023be:	f023 0340 	bic.w	r3, r3, #64	; 0x40
 80023c2:	6013      	str	r3, [r2, #0]
 80023c4:	e7e6      	b.n	8002394 <SPI_WaitFlagStateUntilTimeout+0x2c>
          SPI_RESET_CRC(hspi);
 80023c6:	682a      	ldr	r2, [r5, #0]
 80023c8:	6813      	ldr	r3, [r2, #0]
 80023ca:	f423 5300 	bic.w	r3, r3, #8192	; 0x2000
 80023ce:	6013      	str	r3, [r2, #0]
 80023d0:	682a      	ldr	r2, [r5, #0]
 80023d2:	6813      	ldr	r3, [r2, #0]
 80023d4:	f443 5300 	orr.w	r3, r3, #8192	; 0x2000
 80023d8:	6013      	str	r3, [r2, #0]
 80023da:	e7df      	b.n	800239c <SPI_WaitFlagStateUntilTimeout+0x34>
  while ((__HAL_SPI_GET_FLAG(hspi, Flag) ? SET : RESET) != State)
 80023dc:	2301      	movs	r3, #1
 80023de:	42b3      	cmp	r3, r6
 80023e0:	d009      	beq.n	80023f6 <SPI_WaitFlagStateUntilTimeout+0x8e>
    if (Timeout != HAL_MAX_DELAY)
 80023e2:	f1b4 3fff 	cmp.w	r4, #4294967295
 80023e6:	d1c5      	bne.n	8002374 <SPI_WaitFlagStateUntilTimeout+0xc>
  while ((__HAL_SPI_GET_FLAG(hspi, Flag) ? SET : RESET) != State)
 80023e8:	682b      	ldr	r3, [r5, #0]
 80023ea:	689b      	ldr	r3, [r3, #8]
 80023ec:	ea37 0303 	bics.w	r3, r7, r3
 80023f0:	d0f4      	beq.n	80023dc <SPI_WaitFlagStateUntilTimeout+0x74>
 80023f2:	2300      	movs	r3, #0
 80023f4:	e7f3      	b.n	80023de <SPI_WaitFlagStateUntilTimeout+0x76>
      }
    }
  }

  return HAL_OK;
 80023f6:	2000      	movs	r0, #0
}
 80023f8:	bdf8      	pop	{r3, r4, r5, r6, r7, pc}

080023fa <SPI_WaitFifoStateUntilTimeout>:
  * @param  Tickstart tick start value
  * @retval HAL status
  */
static HAL_StatusTypeDef SPI_WaitFifoStateUntilTimeout(SPI_HandleTypeDef *hspi, uint32_t Fifo, uint32_t State,
                                                       uint32_t Timeout, uint32_t Tickstart)
{
 80023fa:	b5f0      	push	{r4, r5, r6, r7, lr}
 80023fc:	b083      	sub	sp, #12
 80023fe:	4607      	mov	r7, r0
 8002400:	460c      	mov	r4, r1
 8002402:	4615      	mov	r5, r2
 8002404:	461e      	mov	r6, r3
  __IO uint8_t tmpreg;

  while ((hspi->Instance->SR & Fifo) != State)
 8002406:	e002      	b.n	800240e <SPI_WaitFifoStateUntilTimeout+0x14>
      tmpreg = *((__IO uint8_t *)&hspi->Instance->DR);
      /* To avoid GCC warning */
      UNUSED(tmpreg);
    }

    if (Timeout != HAL_MAX_DELAY)
 8002408:	f1b6 3fff 	cmp.w	r6, #4294967295
 800240c:	d110      	bne.n	8002430 <SPI_WaitFifoStateUntilTimeout+0x36>
  while ((hspi->Instance->SR & Fifo) != State)
 800240e:	683a      	ldr	r2, [r7, #0]
 8002410:	6893      	ldr	r3, [r2, #8]
 8002412:	4023      	ands	r3, r4
 8002414:	42ab      	cmp	r3, r5
 8002416:	d03f      	beq.n	8002498 <SPI_WaitFifoStateUntilTimeout+0x9e>
    if ((Fifo == SPI_SR_FRLVL) && (State == SPI_FRLVL_EMPTY))
 8002418:	f5b4 6fc0 	cmp.w	r4, #1536	; 0x600
 800241c:	d1f4      	bne.n	8002408 <SPI_WaitFifoStateUntilTimeout+0xe>
 800241e:	2d00      	cmp	r5, #0
 8002420:	d1f2      	bne.n	8002408 <SPI_WaitFifoStateUntilTimeout+0xe>
      tmpreg = *((__IO uint8_t *)&hspi->Instance->DR);
 8002422:	7b13      	ldrb	r3, [r2, #12]
 8002424:	b2db      	uxtb	r3, r3
 8002426:	f88d 3007 	strb.w	r3, [sp, #7]
      UNUSED(tmpreg);
 800242a:	f89d 3007 	ldrb.w	r3, [sp, #7]
 800242e:	e7eb      	b.n	8002408 <SPI_WaitFifoStateUntilTimeout+0xe>
    {
      if ((Timeout == 0U) || ((HAL_GetTick() - Tickstart) >= Timeout))
 8002430:	b12e      	cbz	r6, 800243e <SPI_WaitFifoStateUntilTimeout+0x44>
 8002432:	f7ff f923 	bl	800167c <HAL_GetTick>
 8002436:	9b08      	ldr	r3, [sp, #32]
 8002438:	1ac0      	subs	r0, r0, r3
 800243a:	4286      	cmp	r6, r0
 800243c:	d8e7      	bhi.n	800240e <SPI_WaitFifoStateUntilTimeout+0x14>
        /* Disable the SPI and reset the CRC: the CRC value should be cleared
           on both master and slave sides in order to resynchronize the master
           and slave for their respective CRC calculation */

        /* Disable TXE, RXNE and ERR interrupts for the interrupt process */
        __HAL_SPI_DISABLE_IT(hspi, (SPI_IT_TXE | SPI_IT_RXNE | SPI_IT_ERR));
 800243e:	683a      	ldr	r2, [r7, #0]
 8002440:	6853      	ldr	r3, [r2, #4]
 8002442:	f023 03e0 	bic.w	r3, r3, #224	; 0xe0
 8002446:	6053      	str	r3, [r2, #4]

        if ((hspi->Init.Mode == SPI_MODE_MASTER) && ((hspi->Init.Direction == SPI_DIRECTION_1LINE)
 8002448:	687b      	ldr	r3, [r7, #4]
 800244a:	f5b3 7f82 	cmp.w	r3, #260	; 0x104
 800244e:	d00b      	beq.n	8002468 <SPI_WaitFifoStateUntilTimeout+0x6e>
          /* Disable SPI peripheral */
          __HAL_SPI_DISABLE(hspi);
        }

        /* Reset CRC Calculation */
        if (hspi->Init.CRCCalculation == SPI_CRCCALCULATION_ENABLE)
 8002450:	6abb      	ldr	r3, [r7, #40]	; 0x28
 8002452:	f5b3 5f00 	cmp.w	r3, #8192	; 0x2000
 8002456:	d014      	beq.n	8002482 <SPI_WaitFifoStateUntilTimeout+0x88>
        {
          SPI_RESET_CRC(hspi);
        }

        hspi->State = HAL_SPI_STATE_READY;
 8002458:	2301      	movs	r3, #1
 800245a:	f887 305d 	strb.w	r3, [r7, #93]	; 0x5d

        /* Process Unlocked */
        __HAL_UNLOCK(hspi);
 800245e:	2300      	movs	r3, #0
 8002460:	f887 305c 	strb.w	r3, [r7, #92]	; 0x5c

        return HAL_TIMEOUT;
 8002464:	2003      	movs	r0, #3
 8002466:	e018      	b.n	800249a <SPI_WaitFifoStateUntilTimeout+0xa0>
        if ((hspi->Init.Mode == SPI_MODE_MASTER) && ((hspi->Init.Direction == SPI_DIRECTION_1LINE)
 8002468:	68bb      	ldr	r3, [r7, #8]
 800246a:	f5b3 4f00 	cmp.w	r3, #32768	; 0x8000
 800246e:	d002      	beq.n	8002476 <SPI_WaitFifoStateUntilTimeout+0x7c>
                                                     || (hspi->Init.Direction == SPI_DIRECTION_2LINES_RXONLY)))
 8002470:	f5b3 6f80 	cmp.w	r3, #1024	; 0x400
 8002474:	d1ec      	bne.n	8002450 <SPI_WaitFifoStateUntilTimeout+0x56>
          __HAL_SPI_DISABLE(hspi);
 8002476:	683a      	ldr	r2, [r7, #0]
 8002478:	6813      	ldr	r3, [r2, #0]
 800247a:	f023 0340 	bic.w	r3, r3, #64	; 0x40
 800247e:	6013      	str	r3, [r2, #0]
 8002480:	e7e6      	b.n	8002450 <SPI_WaitFifoStateUntilTimeout+0x56>
          SPI_RESET_CRC(hspi);
 8002482:	683a      	ldr	r2, [r7, #0]
 8002484:	6813      	ldr	r3, [r2, #0]
 8002486:	f423 5300 	bic.w	r3, r3, #8192	; 0x2000
 800248a:	6013      	str	r3, [r2, #0]
 800248c:	683a      	ldr	r2, [r7, #0]
 800248e:	6813      	ldr	r3, [r2, #0]
 8002490:	f443 5300 	orr.w	r3, r3, #8192	; 0x2000
 8002494:	6013      	str	r3, [r2, #0]
 8002496:	e7df      	b.n	8002458 <SPI_WaitFifoStateUntilTimeout+0x5e>
      }
    }
  }

  return HAL_OK;
 8002498:	2000      	movs	r0, #0
}
 800249a:	b003      	add	sp, #12
 800249c:	bdf0      	pop	{r4, r5, r6, r7, pc}

0800249e <SPI_EndRxTxTransaction>:
  * @param  Timeout Timeout duration
  * @param  Tickstart tick start value
  * @retval HAL status
  */
static HAL_StatusTypeDef SPI_EndRxTxTransaction(SPI_HandleTypeDef *hspi, uint32_t Timeout, uint32_t Tickstart)
{
 800249e:	b570      	push	{r4, r5, r6, lr}
 80024a0:	b082      	sub	sp, #8
 80024a2:	4604      	mov	r4, r0
 80024a4:	460d      	mov	r5, r1
 80024a6:	4616      	mov	r6, r2
  /* Control if the TX fifo is empty */
  if (SPI_WaitFifoStateUntilTimeout(hspi, SPI_FLAG_FTLVL, SPI_FTLVL_EMPTY, Timeout, Tickstart) != HAL_OK)
 80024a8:	9200      	str	r2, [sp, #0]
 80024aa:	460b      	mov	r3, r1
 80024ac:	2200      	movs	r2, #0
 80024ae:	f44f 51c0 	mov.w	r1, #6144	; 0x1800
 80024b2:	f7ff ffa2 	bl	80023fa <SPI_WaitFifoStateUntilTimeout>
 80024b6:	b138      	cbz	r0, 80024c8 <SPI_EndRxTxTransaction+0x2a>
  {
    SET_BIT(hspi->ErrorCode, HAL_SPI_ERROR_FLAG);
 80024b8:	6e23      	ldr	r3, [r4, #96]	; 0x60
 80024ba:	f043 0320 	orr.w	r3, r3, #32
 80024be:	6623      	str	r3, [r4, #96]	; 0x60
    return HAL_TIMEOUT;
 80024c0:	2303      	movs	r3, #3
    SET_BIT(hspi->ErrorCode, HAL_SPI_ERROR_FLAG);
    return HAL_TIMEOUT;
  }

  return HAL_OK;
}
 80024c2:	4618      	mov	r0, r3
 80024c4:	b002      	add	sp, #8
 80024c6:	bd70      	pop	{r4, r5, r6, pc}
  if (SPI_WaitFlagStateUntilTimeout(hspi, SPI_FLAG_BSY, RESET, Timeout, Tickstart) != HAL_OK)
 80024c8:	9600      	str	r6, [sp, #0]
 80024ca:	462b      	mov	r3, r5
 80024cc:	2200      	movs	r2, #0
 80024ce:	2180      	movs	r1, #128	; 0x80
 80024d0:	4620      	mov	r0, r4
 80024d2:	f7ff ff49 	bl	8002368 <SPI_WaitFlagStateUntilTimeout>
 80024d6:	b128      	cbz	r0, 80024e4 <SPI_EndRxTxTransaction+0x46>
    SET_BIT(hspi->ErrorCode, HAL_SPI_ERROR_FLAG);
 80024d8:	6e23      	ldr	r3, [r4, #96]	; 0x60
 80024da:	f043 0320 	orr.w	r3, r3, #32
 80024de:	6623      	str	r3, [r4, #96]	; 0x60
    return HAL_TIMEOUT;
 80024e0:	2303      	movs	r3, #3
 80024e2:	e7ee      	b.n	80024c2 <SPI_EndRxTxTransaction+0x24>
  if (SPI_WaitFifoStateUntilTimeout(hspi, SPI_FLAG_FRLVL, SPI_FRLVL_EMPTY, Timeout, Tickstart) != HAL_OK)
 80024e4:	9600      	str	r6, [sp, #0]
 80024e6:	462b      	mov	r3, r5
 80024e8:	2200      	movs	r2, #0
 80024ea:	f44f 61c0 	mov.w	r1, #1536	; 0x600
 80024ee:	4620      	mov	r0, r4
 80024f0:	f7ff ff83 	bl	80023fa <SPI_WaitFifoStateUntilTimeout>
 80024f4:	4603      	mov	r3, r0
 80024f6:	2800      	cmp	r0, #0
 80024f8:	d0e3      	beq.n	80024c2 <SPI_EndRxTxTransaction+0x24>
    SET_BIT(hspi->ErrorCode, HAL_SPI_ERROR_FLAG);
 80024fa:	6e23      	ldr	r3, [r4, #96]	; 0x60
 80024fc:	f043 0320 	orr.w	r3, r3, #32
 8002500:	6623      	str	r3, [r4, #96]	; 0x60
    return HAL_TIMEOUT;
 8002502:	2303      	movs	r3, #3
 8002504:	e7dd      	b.n	80024c2 <SPI_EndRxTxTransaction+0x24>

08002506 <SPI_EndRxTransaction>:
{
 8002506:	b570      	push	{r4, r5, r6, lr}
 8002508:	b082      	sub	sp, #8
 800250a:	4604      	mov	r4, r0
 800250c:	460d      	mov	r5, r1
 800250e:	4616      	mov	r6, r2
  if ((hspi->Init.Mode == SPI_MODE_MASTER) && ((hspi->Init.Direction == SPI_DIRECTION_1LINE)
 8002510:	6843      	ldr	r3, [r0, #4]
 8002512:	f5b3 7f82 	cmp.w	r3, #260	; 0x104
 8002516:	d010      	beq.n	800253a <SPI_EndRxTransaction+0x34>
  if (SPI_WaitFlagStateUntilTimeout(hspi, SPI_FLAG_BSY, RESET, Timeout, Tickstart) != HAL_OK)
 8002518:	9600      	str	r6, [sp, #0]
 800251a:	462b      	mov	r3, r5
 800251c:	2200      	movs	r2, #0
 800251e:	2180      	movs	r1, #128	; 0x80
 8002520:	4620      	mov	r0, r4
 8002522:	f7ff ff21 	bl	8002368 <SPI_WaitFlagStateUntilTimeout>
 8002526:	4603      	mov	r3, r0
 8002528:	b1a0      	cbz	r0, 8002554 <SPI_EndRxTransaction+0x4e>
    SET_BIT(hspi->ErrorCode, HAL_SPI_ERROR_FLAG);
 800252a:	6e23      	ldr	r3, [r4, #96]	; 0x60
 800252c:	f043 0320 	orr.w	r3, r3, #32
 8002530:	6623      	str	r3, [r4, #96]	; 0x60
    return HAL_TIMEOUT;
 8002532:	2303      	movs	r3, #3
}
 8002534:	4618      	mov	r0, r3
 8002536:	b002      	add	sp, #8
 8002538:	bd70      	pop	{r4, r5, r6, pc}
  if ((hspi->Init.Mode == SPI_MODE_MASTER) && ((hspi->Init.Direction == SPI_DIRECTION_1LINE)
 800253a:	6883      	ldr	r3, [r0, #8]
 800253c:	f5b3 4f00 	cmp.w	r3, #32768	; 0x8000
 8002540:	d002      	beq.n	8002548 <SPI_EndRxTransaction+0x42>
                                               || (hspi->Init.Direction == SPI_DIRECTION_2LINES_RXONLY)))
 8002542:	f5b3 6f80 	cmp.w	r3, #1024	; 0x400
 8002546:	d1e7      	bne.n	8002518 <SPI_EndRxTransaction+0x12>
    __HAL_SPI_DISABLE(hspi);
 8002548:	6822      	ldr	r2, [r4, #0]
 800254a:	6813      	ldr	r3, [r2, #0]
 800254c:	f023 0340 	bic.w	r3, r3, #64	; 0x40
 8002550:	6013      	str	r3, [r2, #0]
 8002552:	e7e1      	b.n	8002518 <SPI_EndRxTransaction+0x12>
  if ((hspi->Init.Mode == SPI_MODE_MASTER) && ((hspi->Init.Direction == SPI_DIRECTION_1LINE)
 8002554:	6862      	ldr	r2, [r4, #4]
 8002556:	f5b2 7f82 	cmp.w	r2, #260	; 0x104
 800255a:	d1eb      	bne.n	8002534 <SPI_EndRxTransaction+0x2e>
 800255c:	68a2      	ldr	r2, [r4, #8]
 800255e:	f5b2 4f00 	cmp.w	r2, #32768	; 0x8000
 8002562:	d002      	beq.n	800256a <SPI_EndRxTransaction+0x64>
                                               || (hspi->Init.Direction == SPI_DIRECTION_2LINES_RXONLY)))
 8002564:	f5b2 6f80 	cmp.w	r2, #1024	; 0x400
 8002568:	d1e4      	bne.n	8002534 <SPI_EndRxTransaction+0x2e>
    if (SPI_WaitFifoStateUntilTimeout(hspi, SPI_FLAG_FRLVL, SPI_FRLVL_EMPTY, Timeout, Tickstart) != HAL_OK)
 800256a:	9600      	str	r6, [sp, #0]
 800256c:	462b      	mov	r3, r5
 800256e:	2200      	movs	r2, #0
 8002570:	f44f 61c0 	mov.w	r1, #1536	; 0x600
 8002574:	4620      	mov	r0, r4
 8002576:	f7ff ff40 	bl	80023fa <SPI_WaitFifoStateUntilTimeout>
 800257a:	4603      	mov	r3, r0
 800257c:	2800      	cmp	r0, #0
 800257e:	d0d9      	beq.n	8002534 <SPI_EndRxTransaction+0x2e>
      SET_BIT(hspi->ErrorCode, HAL_SPI_ERROR_FLAG);
 8002580:	6e23      	ldr	r3, [r4, #96]	; 0x60
 8002582:	f043 0320 	orr.w	r3, r3, #32
 8002586:	6623      	str	r3, [r4, #96]	; 0x60
      return HAL_TIMEOUT;
 8002588:	2303      	movs	r3, #3
 800258a:	e7d3      	b.n	8002534 <SPI_EndRxTransaction+0x2e>

0800258c <HAL_SPI_Init>:
  if (hspi == NULL)
 800258c:	2800      	cmp	r0, #0
 800258e:	d053      	beq.n	8002638 <HAL_SPI_Init+0xac>
{
 8002590:	b510      	push	{r4, lr}
 8002592:	4604      	mov	r4, r0
  hspi->Init.CRCCalculation = SPI_CRCCALCULATION_DISABLE;
 8002594:	2300      	movs	r3, #0
 8002596:	6283      	str	r3, [r0, #40]	; 0x28
  if (hspi->State == HAL_SPI_STATE_RESET)
 8002598:	f890 305d 	ldrb.w	r3, [r0, #93]	; 0x5d
 800259c:	2b00      	cmp	r3, #0
 800259e:	d040      	beq.n	8002622 <HAL_SPI_Init+0x96>
  hspi->State = HAL_SPI_STATE_BUSY;
 80025a0:	2302      	movs	r3, #2
 80025a2:	f884 305d 	strb.w	r3, [r4, #93]	; 0x5d
  __HAL_SPI_DISABLE(hspi);
 80025a6:	6822      	ldr	r2, [r4, #0]
 80025a8:	6813      	ldr	r3, [r2, #0]
 80025aa:	f023 0340 	bic.w	r3, r3, #64	; 0x40
 80025ae:	6013      	str	r3, [r2, #0]
  if (hspi->Init.DataSize > SPI_DATASIZE_8BIT)
 80025b0:	68e3      	ldr	r3, [r4, #12]
 80025b2:	f5b3 6fe0 	cmp.w	r3, #1792	; 0x700
 80025b6:	d939      	bls.n	800262c <HAL_SPI_Init+0xa0>
    frxth = SPI_RXFIFO_THRESHOLD_HF;
 80025b8:	2100      	movs	r1, #0
  if ((hspi->Init.DataSize != SPI_DATASIZE_16BIT) && (hspi->Init.DataSize != SPI_DATASIZE_8BIT))
 80025ba:	f5b3 6f70 	cmp.w	r3, #3840	; 0xf00
 80025be:	d004      	beq.n	80025ca <HAL_SPI_Init+0x3e>
 80025c0:	f5b3 6fe0 	cmp.w	r3, #1792	; 0x700
 80025c4:	d001      	beq.n	80025ca <HAL_SPI_Init+0x3e>
    hspi->Init.CRCCalculation = SPI_CRCCALCULATION_DISABLE;
 80025c6:	2200      	movs	r2, #0
 80025c8:	62a2      	str	r2, [r4, #40]	; 0x28
  if (hspi->Init.CRCLength == SPI_CRC_LENGTH_DATASIZE)
 80025ca:	6b22      	ldr	r2, [r4, #48]	; 0x30
 80025cc:	b922      	cbnz	r2, 80025d8 <HAL_SPI_Init+0x4c>
    if (hspi->Init.DataSize > SPI_DATASIZE_8BIT)
 80025ce:	f5b3 6fe0 	cmp.w	r3, #1792	; 0x700
 80025d2:	d92e      	bls.n	8002632 <HAL_SPI_Init+0xa6>
      hspi->Init.CRCLength = SPI_CRC_LENGTH_16BIT;
 80025d4:	2302      	movs	r3, #2
 80025d6:	6323      	str	r3, [r4, #48]	; 0x30
  WRITE_REG(hspi->Instance->CR1, (hspi->Init.Mode | hspi->Init.Direction |
 80025d8:	6822      	ldr	r2, [r4, #0]
 80025da:	6863      	ldr	r3, [r4, #4]
 80025dc:	68a0      	ldr	r0, [r4, #8]
 80025de:	4303      	orrs	r3, r0
 80025e0:	6920      	ldr	r0, [r4, #16]
 80025e2:	4303      	orrs	r3, r0
 80025e4:	6960      	ldr	r0, [r4, #20]
 80025e6:	4303      	orrs	r3, r0
 80025e8:	69a0      	ldr	r0, [r4, #24]
 80025ea:	f400 7000 	and.w	r0, r0, #512	; 0x200
 80025ee:	4303      	orrs	r3, r0
 80025f0:	69e0      	ldr	r0, [r4, #28]
 80025f2:	4303      	orrs	r3, r0
 80025f4:	6a20      	ldr	r0, [r4, #32]
 80025f6:	4303      	orrs	r3, r0
 80025f8:	6aa0      	ldr	r0, [r4, #40]	; 0x28
 80025fa:	4303      	orrs	r3, r0
 80025fc:	6013      	str	r3, [r2, #0]
  WRITE_REG(hspi->Instance->CR2, (((hspi->Init.NSS >> 16U) & SPI_CR2_SSOE) | hspi->Init.TIMode |
 80025fe:	6822      	ldr	r2, [r4, #0]
 8002600:	8b63      	ldrh	r3, [r4, #26]
 8002602:	f003 0304 	and.w	r3, r3, #4
 8002606:	6a60      	ldr	r0, [r4, #36]	; 0x24
 8002608:	4303      	orrs	r3, r0
 800260a:	6b60      	ldr	r0, [r4, #52]	; 0x34
 800260c:	4303      	orrs	r3, r0
 800260e:	68e0      	ldr	r0, [r4, #12]
 8002610:	4303      	orrs	r3, r0
 8002612:	430b      	orrs	r3, r1
 8002614:	6053      	str	r3, [r2, #4]
  hspi->ErrorCode = HAL_SPI_ERROR_NONE;
 8002616:	2000      	movs	r0, #0
 8002618:	6620      	str	r0, [r4, #96]	; 0x60
  hspi->State     = HAL_SPI_STATE_READY;
 800261a:	2301      	movs	r3, #1
 800261c:	f884 305d 	strb.w	r3, [r4, #93]	; 0x5d
  return HAL_OK;
 8002620:	bd10      	pop	{r4, pc}
    hspi->Lock = HAL_UNLOCKED;
 8002622:	f880 305c 	strb.w	r3, [r0, #92]	; 0x5c
    HAL_SPI_MspInit(hspi);
 8002626:	f7fe fd55 	bl	80010d4 <HAL_SPI_MspInit>
 800262a:	e7b9      	b.n	80025a0 <HAL_SPI_Init+0x14>
    frxth = SPI_RXFIFO_THRESHOLD_QF;
 800262c:	f44f 5180 	mov.w	r1, #4096	; 0x1000
 8002630:	e7c3      	b.n	80025ba <HAL_SPI_Init+0x2e>
      hspi->Init.CRCLength = SPI_CRC_LENGTH_8BIT;
 8002632:	2301      	movs	r3, #1
 8002634:	6323      	str	r3, [r4, #48]	; 0x30
 8002636:	e7cf      	b.n	80025d8 <HAL_SPI_Init+0x4c>
    return HAL_ERROR;
 8002638:	2001      	movs	r0, #1
 800263a:	4770      	bx	lr

0800263c <HAL_SPI_DeInit>:
  if (hspi == NULL)
 800263c:	b190      	cbz	r0, 8002664 <HAL_SPI_DeInit+0x28>
{
 800263e:	b510      	push	{r4, lr}
 8002640:	4604      	mov	r4, r0
  hspi->State = HAL_SPI_STATE_BUSY;
 8002642:	2302      	movs	r3, #2
 8002644:	f880 305d 	strb.w	r3, [r0, #93]	; 0x5d
  __HAL_SPI_DISABLE(hspi);
 8002648:	6802      	ldr	r2, [r0, #0]
 800264a:	6813      	ldr	r3, [r2, #0]
 800264c:	f023 0340 	bic.w	r3, r3, #64	; 0x40
 8002650:	6013      	str	r3, [r2, #0]
  HAL_SPI_MspDeInit(hspi);
 8002652:	f7fe fd67 	bl	8001124 <HAL_SPI_MspDeInit>
  hspi->ErrorCode = HAL_SPI_ERROR_NONE;
 8002656:	2000      	movs	r0, #0
 8002658:	6620      	str	r0, [r4, #96]	; 0x60
  hspi->State = HAL_SPI_STATE_RESET;
 800265a:	f884 005d 	strb.w	r0, [r4, #93]	; 0x5d
  __HAL_UNLOCK(hspi);
 800265e:	f884 005c 	strb.w	r0, [r4, #92]	; 0x5c
  return HAL_OK;
 8002662:	bd10      	pop	{r4, pc}
    return HAL_ERROR;
 8002664:	2001      	movs	r0, #1
 8002666:	4770      	bx	lr

08002668 <HAL_SPI_TransmitReceive_IT>:
{
 8002668:	b430      	push	{r4, r5}
  __HAL_LOCK(hspi);
 800266a:	f890 405c 	ldrb.w	r4, [r0, #92]	; 0x5c
 800266e:	2c01      	cmp	r4, #1
 8002670:	d06c      	beq.n	800274c <HAL_SPI_TransmitReceive_IT+0xe4>
 8002672:	2401      	movs	r4, #1
 8002674:	f880 405c 	strb.w	r4, [r0, #92]	; 0x5c
  tmp  = hspi->State;
 8002678:	f890 405d 	ldrb.w	r4, [r0, #93]	; 0x5d
 800267c:	b2e4      	uxtb	r4, r4
  tmp1 = hspi->Init.Mode;
 800267e:	6845      	ldr	r5, [r0, #4]
  if (!((tmp == HAL_SPI_STATE_READY) || \
 8002680:	2c01      	cmp	r4, #1
 8002682:	d010      	beq.n	80026a6 <HAL_SPI_TransmitReceive_IT+0x3e>
 8002684:	f5b5 7f82 	cmp.w	r5, #260	; 0x104
 8002688:	d006      	beq.n	8002698 <HAL_SPI_TransmitReceive_IT+0x30>
    errorcode = HAL_BUSY;
 800268a:	2302      	movs	r3, #2
  __HAL_UNLOCK(hspi);
 800268c:	2200      	movs	r2, #0
 800268e:	f880 205c 	strb.w	r2, [r0, #92]	; 0x5c
}
 8002692:	4618      	mov	r0, r3
 8002694:	bc30      	pop	{r4, r5}
 8002696:	4770      	bx	lr
        ((tmp1 == SPI_MODE_MASTER) && (hspi->Init.Direction == SPI_DIRECTION_2LINES) && (tmp == HAL_SPI_STATE_BUSY_RX))))
 8002698:	6885      	ldr	r5, [r0, #8]
 800269a:	2d00      	cmp	r5, #0
 800269c:	d14c      	bne.n	8002738 <HAL_SPI_TransmitReceive_IT+0xd0>
 800269e:	2c04      	cmp	r4, #4
 80026a0:	d001      	beq.n	80026a6 <HAL_SPI_TransmitReceive_IT+0x3e>
    errorcode = HAL_BUSY;
 80026a2:	2302      	movs	r3, #2
 80026a4:	e7f2      	b.n	800268c <HAL_SPI_TransmitReceive_IT+0x24>
  if ((pTxData == NULL) || (pRxData == NULL) || (Size == 0U))
 80026a6:	2900      	cmp	r1, #0
 80026a8:	d048      	beq.n	800273c <HAL_SPI_TransmitReceive_IT+0xd4>
 80026aa:	2a00      	cmp	r2, #0
 80026ac:	d048      	beq.n	8002740 <HAL_SPI_TransmitReceive_IT+0xd8>
 80026ae:	2b00      	cmp	r3, #0
 80026b0:	d048      	beq.n	8002744 <HAL_SPI_TransmitReceive_IT+0xdc>
  if (hspi->State != HAL_SPI_STATE_BUSY_RX)
 80026b2:	f890 405d 	ldrb.w	r4, [r0, #93]	; 0x5d
 80026b6:	b2e4      	uxtb	r4, r4
 80026b8:	2c04      	cmp	r4, #4
 80026ba:	d002      	beq.n	80026c2 <HAL_SPI_TransmitReceive_IT+0x5a>
    hspi->State = HAL_SPI_STATE_BUSY_TX_RX;
 80026bc:	2405      	movs	r4, #5
 80026be:	f880 405d 	strb.w	r4, [r0, #93]	; 0x5d
  hspi->ErrorCode   = HAL_SPI_ERROR_NONE;
 80026c2:	2400      	movs	r4, #0
 80026c4:	6604      	str	r4, [r0, #96]	; 0x60
  hspi->pTxBuffPtr  = (uint8_t *)pTxData;
 80026c6:	6381      	str	r1, [r0, #56]	; 0x38
  hspi->TxXferSize  = Size;
 80026c8:	8783      	strh	r3, [r0, #60]	; 0x3c
  hspi->TxXferCount = Size;
 80026ca:	87c3      	strh	r3, [r0, #62]	; 0x3e
  hspi->pRxBuffPtr  = (uint8_t *)pRxData;
 80026cc:	6402      	str	r2, [r0, #64]	; 0x40
  hspi->RxXferSize  = Size;
 80026ce:	f8a0 3044 	strh.w	r3, [r0, #68]	; 0x44
  hspi->RxXferCount = Size;
 80026d2:	f8a0 3046 	strh.w	r3, [r0, #70]	; 0x46
  if (hspi->Init.DataSize > SPI_DATASIZE_8BIT)
 80026d6:	68c3      	ldr	r3, [r0, #12]
 80026d8:	f5b3 6fe0 	cmp.w	r3, #1792	; 0x700
 80026dc:	d921      	bls.n	8002722 <HAL_SPI_TransmitReceive_IT+0xba>
    hspi->RxISR     = SPI_2linesRxISR_16BIT;
 80026de:	4b1c      	ldr	r3, [pc, #112]	; (8002750 <HAL_SPI_TransmitReceive_IT+0xe8>)
 80026e0:	64c3      	str	r3, [r0, #76]	; 0x4c
    hspi->TxISR     = SPI_2linesTxISR_16BIT;
 80026e2:	4b1c      	ldr	r3, [pc, #112]	; (8002754 <HAL_SPI_TransmitReceive_IT+0xec>)
 80026e4:	6503      	str	r3, [r0, #80]	; 0x50
  if ((hspi->Init.DataSize > SPI_DATASIZE_8BIT) || (hspi->RxXferCount >= 2U))
 80026e6:	68c3      	ldr	r3, [r0, #12]
 80026e8:	f5b3 6fe0 	cmp.w	r3, #1792	; 0x700
 80026ec:	d804      	bhi.n	80026f8 <HAL_SPI_TransmitReceive_IT+0x90>
 80026ee:	f8b0 3046 	ldrh.w	r3, [r0, #70]	; 0x46
 80026f2:	b29b      	uxth	r3, r3
 80026f4:	2b01      	cmp	r3, #1
 80026f6:	d919      	bls.n	800272c <HAL_SPI_TransmitReceive_IT+0xc4>
    CLEAR_BIT(hspi->Instance->CR2, SPI_RXFIFO_THRESHOLD);
 80026f8:	6802      	ldr	r2, [r0, #0]
 80026fa:	6853      	ldr	r3, [r2, #4]
 80026fc:	f423 5380 	bic.w	r3, r3, #4096	; 0x1000
 8002700:	6053      	str	r3, [r2, #4]
  __HAL_SPI_ENABLE_IT(hspi, (SPI_IT_TXE | SPI_IT_RXNE | SPI_IT_ERR));
 8002702:	6802      	ldr	r2, [r0, #0]
 8002704:	6853      	ldr	r3, [r2, #4]
 8002706:	f043 03e0 	orr.w	r3, r3, #224	; 0xe0
 800270a:	6053      	str	r3, [r2, #4]
  if ((hspi->Instance->CR1 & SPI_CR1_SPE) != SPI_CR1_SPE)
 800270c:	6803      	ldr	r3, [r0, #0]
 800270e:	681a      	ldr	r2, [r3, #0]
 8002710:	f012 0f40 	tst.w	r2, #64	; 0x40
 8002714:	d118      	bne.n	8002748 <HAL_SPI_TransmitReceive_IT+0xe0>
    __HAL_SPI_ENABLE(hspi);
 8002716:	681a      	ldr	r2, [r3, #0]
 8002718:	f042 0240 	orr.w	r2, r2, #64	; 0x40
 800271c:	601a      	str	r2, [r3, #0]
  HAL_StatusTypeDef errorcode = HAL_OK;
 800271e:	2300      	movs	r3, #0
 8002720:	e7b4      	b.n	800268c <HAL_SPI_TransmitReceive_IT+0x24>
    hspi->RxISR     = SPI_2linesRxISR_8BIT;
 8002722:	4b0d      	ldr	r3, [pc, #52]	; (8002758 <HAL_SPI_TransmitReceive_IT+0xf0>)
 8002724:	64c3      	str	r3, [r0, #76]	; 0x4c
    hspi->TxISR     = SPI_2linesTxISR_8BIT;
 8002726:	4b0d      	ldr	r3, [pc, #52]	; (800275c <HAL_SPI_TransmitReceive_IT+0xf4>)
 8002728:	6503      	str	r3, [r0, #80]	; 0x50
 800272a:	e7dc      	b.n	80026e6 <HAL_SPI_TransmitReceive_IT+0x7e>
    SET_BIT(hspi->Instance->CR2, SPI_RXFIFO_THRESHOLD);
 800272c:	6802      	ldr	r2, [r0, #0]
 800272e:	6853      	ldr	r3, [r2, #4]
 8002730:	f443 5380 	orr.w	r3, r3, #4096	; 0x1000
 8002734:	6053      	str	r3, [r2, #4]
 8002736:	e7e4      	b.n	8002702 <HAL_SPI_TransmitReceive_IT+0x9a>
    errorcode = HAL_BUSY;
 8002738:	2302      	movs	r3, #2
 800273a:	e7a7      	b.n	800268c <HAL_SPI_TransmitReceive_IT+0x24>
    errorcode = HAL_ERROR;
 800273c:	2301      	movs	r3, #1
 800273e:	e7a5      	b.n	800268c <HAL_SPI_TransmitReceive_IT+0x24>
 8002740:	2301      	movs	r3, #1
 8002742:	e7a3      	b.n	800268c <HAL_SPI_TransmitReceive_IT+0x24>
 8002744:	2301      	movs	r3, #1
 8002746:	e7a1      	b.n	800268c <HAL_SPI_TransmitReceive_IT+0x24>
  HAL_StatusTypeDef errorcode = HAL_OK;
 8002748:	2300      	movs	r3, #0
 800274a:	e79f      	b.n	800268c <HAL_SPI_TransmitReceive_IT+0x24>
  __HAL_LOCK(hspi);
 800274c:	2302      	movs	r3, #2
 800274e:	e7a0      	b.n	8002692 <HAL_SPI_TransmitReceive_IT+0x2a>
 8002750:	08002a47 	.word	0x08002a47
 8002754:	08002a0d 	.word	0x08002a0d
 8002758:	08002993 	.word	0x08002993
 800275c:	08002939 	.word	0x08002939

08002760 <HAL_SPI_Receive_IT>:
{
 8002760:	b510      	push	{r4, lr}
 8002762:	4604      	mov	r4, r0
  if ((hspi->Init.Direction == SPI_DIRECTION_2LINES) && (hspi->Init.Mode == SPI_MODE_MASTER))
 8002764:	6880      	ldr	r0, [r0, #8]
 8002766:	b918      	cbnz	r0, 8002770 <HAL_SPI_Receive_IT+0x10>
 8002768:	6863      	ldr	r3, [r4, #4]
 800276a:	f5b3 7f82 	cmp.w	r3, #260	; 0x104
 800276e:	d010      	beq.n	8002792 <HAL_SPI_Receive_IT+0x32>
  __HAL_LOCK(hspi);
 8002770:	f894 005c 	ldrb.w	r0, [r4, #92]	; 0x5c
 8002774:	2801      	cmp	r0, #1
 8002776:	d05a      	beq.n	800282e <HAL_SPI_Receive_IT+0xce>
 8002778:	2301      	movs	r3, #1
 800277a:	f884 305c 	strb.w	r3, [r4, #92]	; 0x5c
  if (hspi->State != HAL_SPI_STATE_READY)
 800277e:	f894 005d 	ldrb.w	r0, [r4, #93]	; 0x5d
 8002782:	b2c0      	uxtb	r0, r0
 8002784:	4298      	cmp	r0, r3
 8002786:	d00d      	beq.n	80027a4 <HAL_SPI_Receive_IT+0x44>
    errorcode = HAL_BUSY;
 8002788:	2002      	movs	r0, #2
  __HAL_UNLOCK(hspi);
 800278a:	2300      	movs	r3, #0
 800278c:	f884 305c 	strb.w	r3, [r4, #92]	; 0x5c
  return errorcode;
 8002790:	bd10      	pop	{r4, pc}
 8002792:	4613      	mov	r3, r2
 8002794:	4620      	mov	r0, r4
    hspi->State = HAL_SPI_STATE_BUSY_RX;
 8002796:	2204      	movs	r2, #4
 8002798:	f884 205d 	strb.w	r2, [r4, #93]	; 0x5d
    return HAL_SPI_TransmitReceive_IT(hspi, pData, pData, Size);
 800279c:	460a      	mov	r2, r1
 800279e:	f7ff ff63 	bl	8002668 <HAL_SPI_TransmitReceive_IT>
 80027a2:	bd10      	pop	{r4, pc}
  if ((pData == NULL) || (Size == 0U))
 80027a4:	2900      	cmp	r1, #0
 80027a6:	d03c      	beq.n	8002822 <HAL_SPI_Receive_IT+0xc2>
 80027a8:	2a00      	cmp	r2, #0
 80027aa:	d03c      	beq.n	8002826 <HAL_SPI_Receive_IT+0xc6>
  hspi->State       = HAL_SPI_STATE_BUSY_RX;
 80027ac:	2304      	movs	r3, #4
 80027ae:	f884 305d 	strb.w	r3, [r4, #93]	; 0x5d
  hspi->ErrorCode   = HAL_SPI_ERROR_NONE;
 80027b2:	2300      	movs	r3, #0
 80027b4:	6623      	str	r3, [r4, #96]	; 0x60
  hspi->pRxBuffPtr  = (uint8_t *)pData;
 80027b6:	6421      	str	r1, [r4, #64]	; 0x40
  hspi->RxXferSize  = Size;
 80027b8:	f8a4 2044 	strh.w	r2, [r4, #68]	; 0x44
  hspi->RxXferCount = Size;
 80027bc:	f8a4 2046 	strh.w	r2, [r4, #70]	; 0x46
  hspi->pTxBuffPtr  = (uint8_t *)NULL;
 80027c0:	63a3      	str	r3, [r4, #56]	; 0x38
  hspi->TxXferSize  = 0U;
 80027c2:	87a3      	strh	r3, [r4, #60]	; 0x3c
  hspi->TxXferCount = 0U;
 80027c4:	87e3      	strh	r3, [r4, #62]	; 0x3e
  hspi->TxISR       = NULL;
 80027c6:	6523      	str	r3, [r4, #80]	; 0x50
  if (hspi->Init.DataSize > SPI_DATASIZE_8BIT)
 80027c8:	68e3      	ldr	r3, [r4, #12]
 80027ca:	f5b3 6fe0 	cmp.w	r3, #1792	; 0x700
 80027ce:	d91a      	bls.n	8002806 <HAL_SPI_Receive_IT+0xa6>
    CLEAR_BIT(hspi->Instance->CR2, SPI_RXFIFO_THRESHOLD);
 80027d0:	6822      	ldr	r2, [r4, #0]
 80027d2:	6853      	ldr	r3, [r2, #4]
 80027d4:	f423 5380 	bic.w	r3, r3, #4096	; 0x1000
 80027d8:	6053      	str	r3, [r2, #4]
    hspi->RxISR = SPI_RxISR_16BIT;
 80027da:	4b16      	ldr	r3, [pc, #88]	; (8002834 <HAL_SPI_Receive_IT+0xd4>)
 80027dc:	64e3      	str	r3, [r4, #76]	; 0x4c
  if (hspi->Init.Direction == SPI_DIRECTION_1LINE)
 80027de:	68a3      	ldr	r3, [r4, #8]
 80027e0:	f5b3 4f00 	cmp.w	r3, #32768	; 0x8000
 80027e4:	d017      	beq.n	8002816 <HAL_SPI_Receive_IT+0xb6>
  __HAL_SPI_ENABLE_IT(hspi, (SPI_IT_RXNE | SPI_IT_ERR));
 80027e6:	6822      	ldr	r2, [r4, #0]
 80027e8:	6853      	ldr	r3, [r2, #4]
 80027ea:	f043 0360 	orr.w	r3, r3, #96	; 0x60
 80027ee:	6053      	str	r3, [r2, #4]
  if ((hspi->Instance->CR1 & SPI_CR1_SPE) != SPI_CR1_SPE)
 80027f0:	6823      	ldr	r3, [r4, #0]
 80027f2:	681a      	ldr	r2, [r3, #0]
 80027f4:	f012 0f40 	tst.w	r2, #64	; 0x40
 80027f8:	d117      	bne.n	800282a <HAL_SPI_Receive_IT+0xca>
    __HAL_SPI_ENABLE(hspi);
 80027fa:	681a      	ldr	r2, [r3, #0]
 80027fc:	f042 0240 	orr.w	r2, r2, #64	; 0x40
 8002800:	601a      	str	r2, [r3, #0]
  HAL_StatusTypeDef errorcode = HAL_OK;
 8002802:	2000      	movs	r0, #0
 8002804:	e7c1      	b.n	800278a <HAL_SPI_Receive_IT+0x2a>
    SET_BIT(hspi->Instance->CR2, SPI_RXFIFO_THRESHOLD);
 8002806:	6822      	ldr	r2, [r4, #0]
 8002808:	6853      	ldr	r3, [r2, #4]
 800280a:	f443 5380 	orr.w	r3, r3, #4096	; 0x1000
 800280e:	6053      	str	r3, [r2, #4]
    hspi->RxISR = SPI_RxISR_8BIT;
 8002810:	4b09      	ldr	r3, [pc, #36]	; (8002838 <HAL_SPI_Receive_IT+0xd8>)
 8002812:	64e3      	str	r3, [r4, #76]	; 0x4c
 8002814:	e7e3      	b.n	80027de <HAL_SPI_Receive_IT+0x7e>
    SPI_1LINE_RX(hspi);
 8002816:	6822      	ldr	r2, [r4, #0]
 8002818:	6813      	ldr	r3, [r2, #0]
 800281a:	f423 4380 	bic.w	r3, r3, #16384	; 0x4000
 800281e:	6013      	str	r3, [r2, #0]
 8002820:	e7e1      	b.n	80027e6 <HAL_SPI_Receive_IT+0x86>
    errorcode = HAL_ERROR;
 8002822:	2001      	movs	r0, #1
 8002824:	e7b1      	b.n	800278a <HAL_SPI_Receive_IT+0x2a>
 8002826:	2001      	movs	r0, #1
 8002828:	e7af      	b.n	800278a <HAL_SPI_Receive_IT+0x2a>
  HAL_StatusTypeDef errorcode = HAL_OK;
 800282a:	2000      	movs	r0, #0
 800282c:	e7ad      	b.n	800278a <HAL_SPI_Receive_IT+0x2a>
  __HAL_LOCK(hspi);
 800282e:	2002      	movs	r0, #2
}
 8002830:	bd10      	pop	{r4, pc}
 8002832:	bf00      	nop
 8002834:	080028ad 	.word	0x080028ad
 8002838:	08002881 	.word	0x08002881

0800283c <HAL_SPI_RxCpltCallback>:
{
 800283c:	4770      	bx	lr

0800283e <HAL_SPI_TxRxCpltCallback>:
{
 800283e:	4770      	bx	lr

08002840 <SPI_CloseRx_ISR>:
  * @param  hspi pointer to a SPI_HandleTypeDef structure that contains
  *               the configuration information for SPI module.
  * @retval None
  */
static void SPI_CloseRx_ISR(SPI_HandleTypeDef *hspi)
{
 8002840:	b510      	push	{r4, lr}
 8002842:	4604      	mov	r4, r0
  /* Disable RXNE and ERR interrupt */
  __HAL_SPI_DISABLE_IT(hspi, (SPI_IT_RXNE | SPI_IT_ERR));
 8002844:	6802      	ldr	r2, [r0, #0]
 8002846:	6853      	ldr	r3, [r2, #4]
 8002848:	f023 0360 	bic.w	r3, r3, #96	; 0x60
 800284c:	6053      	str	r3, [r2, #4]

  /* Check the end of the transaction */
  if (SPI_EndRxTransaction(hspi, SPI_DEFAULT_TIMEOUT, HAL_GetTick()) != HAL_OK)
 800284e:	f7fe ff15 	bl	800167c <HAL_GetTick>
 8002852:	4602      	mov	r2, r0
 8002854:	2164      	movs	r1, #100	; 0x64
 8002856:	4620      	mov	r0, r4
 8002858:	f7ff fe55 	bl	8002506 <SPI_EndRxTransaction>
 800285c:	b118      	cbz	r0, 8002866 <SPI_CloseRx_ISR+0x26>
  {
    SET_BIT(hspi->ErrorCode, HAL_SPI_ERROR_FLAG);
 800285e:	6e23      	ldr	r3, [r4, #96]	; 0x60
 8002860:	f043 0320 	orr.w	r3, r3, #32
 8002864:	6623      	str	r3, [r4, #96]	; 0x60
  }
  hspi->State = HAL_SPI_STATE_READY;
 8002866:	2301      	movs	r3, #1
 8002868:	f884 305d 	strb.w	r3, [r4, #93]	; 0x5d
    HAL_SPI_ErrorCallback(hspi);
  }
  else
  {
#endif /* USE_SPI_CRC */
    if (hspi->ErrorCode == HAL_SPI_ERROR_NONE)
 800286c:	6e23      	ldr	r3, [r4, #96]	; 0x60
 800286e:	b11b      	cbz	r3, 8002878 <SPI_CloseRx_ISR+0x38>
    {
      HAL_SPI_RxCpltCallback(hspi);
    }
    else
    {
      HAL_SPI_ErrorCallback(hspi);
 8002870:	4620      	mov	r0, r4
 8002872:	f7fe fc2b 	bl	80010cc <HAL_SPI_ErrorCallback>
 8002876:	bd10      	pop	{r4, pc}
      HAL_SPI_RxCpltCallback(hspi);
 8002878:	4620      	mov	r0, r4
 800287a:	f7ff ffdf 	bl	800283c <HAL_SPI_RxCpltCallback>
 800287e:	bd10      	pop	{r4, pc}

08002880 <SPI_RxISR_8BIT>:
{
 8002880:	b508      	push	{r3, lr}
  *hspi->pRxBuffPtr++ = (*(__IO uint8_t *)&hspi->Instance->DR);
 8002882:	6c03      	ldr	r3, [r0, #64]	; 0x40
 8002884:	1c5a      	adds	r2, r3, #1
 8002886:	6402      	str	r2, [r0, #64]	; 0x40
 8002888:	6802      	ldr	r2, [r0, #0]
 800288a:	7b12      	ldrb	r2, [r2, #12]
 800288c:	701a      	strb	r2, [r3, #0]
  hspi->RxXferCount--;
 800288e:	f8b0 3046 	ldrh.w	r3, [r0, #70]	; 0x46
 8002892:	b29b      	uxth	r3, r3
 8002894:	3b01      	subs	r3, #1
 8002896:	b29b      	uxth	r3, r3
 8002898:	f8a0 3046 	strh.w	r3, [r0, #70]	; 0x46
  if (hspi->RxXferCount == 0U)
 800289c:	f8b0 3046 	ldrh.w	r3, [r0, #70]	; 0x46
 80028a0:	b29b      	uxth	r3, r3
 80028a2:	b103      	cbz	r3, 80028a6 <SPI_RxISR_8BIT+0x26>
 80028a4:	bd08      	pop	{r3, pc}
    SPI_CloseRx_ISR(hspi);
 80028a6:	f7ff ffcb 	bl	8002840 <SPI_CloseRx_ISR>
}
 80028aa:	e7fb      	b.n	80028a4 <SPI_RxISR_8BIT+0x24>

080028ac <SPI_RxISR_16BIT>:
{
 80028ac:	b508      	push	{r3, lr}
  *((uint16_t *)hspi->pRxBuffPtr) = hspi->Instance->DR;
 80028ae:	6c03      	ldr	r3, [r0, #64]	; 0x40
 80028b0:	6802      	ldr	r2, [r0, #0]
 80028b2:	68d2      	ldr	r2, [r2, #12]
 80028b4:	801a      	strh	r2, [r3, #0]
  hspi->pRxBuffPtr += sizeof(uint16_t);
 80028b6:	6c03      	ldr	r3, [r0, #64]	; 0x40
 80028b8:	3302      	adds	r3, #2
 80028ba:	6403      	str	r3, [r0, #64]	; 0x40
  hspi->RxXferCount--;
 80028bc:	f8b0 3046 	ldrh.w	r3, [r0, #70]	; 0x46
 80028c0:	b29b      	uxth	r3, r3
 80028c2:	3b01      	subs	r3, #1
 80028c4:	b29b      	uxth	r3, r3
 80028c6:	f8a0 3046 	strh.w	r3, [r0, #70]	; 0x46
  if (hspi->RxXferCount == 0U)
 80028ca:	f8b0 3046 	ldrh.w	r3, [r0, #70]	; 0x46
 80028ce:	b29b      	uxth	r3, r3
 80028d0:	b103      	cbz	r3, 80028d4 <SPI_RxISR_16BIT+0x28>
 80028d2:	bd08      	pop	{r3, pc}
    SPI_CloseRx_ISR(hspi);
 80028d4:	f7ff ffb4 	bl	8002840 <SPI_CloseRx_ISR>
}
 80028d8:	e7fb      	b.n	80028d2 <SPI_RxISR_16BIT+0x26>

080028da <SPI_CloseRxTx_ISR>:
{
 80028da:	b510      	push	{r4, lr}
 80028dc:	4604      	mov	r4, r0
  tickstart = HAL_GetTick();
 80028de:	f7fe fecd 	bl	800167c <HAL_GetTick>
  __HAL_SPI_DISABLE_IT(hspi, SPI_IT_ERR);
 80028e2:	6822      	ldr	r2, [r4, #0]
 80028e4:	6853      	ldr	r3, [r2, #4]
 80028e6:	f023 0320 	bic.w	r3, r3, #32
 80028ea:	6053      	str	r3, [r2, #4]
  if (SPI_EndRxTxTransaction(hspi, SPI_DEFAULT_TIMEOUT, tickstart) != HAL_OK)
 80028ec:	4602      	mov	r2, r0
 80028ee:	2164      	movs	r1, #100	; 0x64
 80028f0:	4620      	mov	r0, r4
 80028f2:	f7ff fdd4 	bl	800249e <SPI_EndRxTxTransaction>
 80028f6:	b118      	cbz	r0, 8002900 <SPI_CloseRxTx_ISR+0x26>
    SET_BIT(hspi->ErrorCode, HAL_SPI_ERROR_FLAG);
 80028f8:	6e23      	ldr	r3, [r4, #96]	; 0x60
 80028fa:	f043 0320 	orr.w	r3, r3, #32
 80028fe:	6623      	str	r3, [r4, #96]	; 0x60
    if (hspi->ErrorCode == HAL_SPI_ERROR_NONE)
 8002900:	6e23      	ldr	r3, [r4, #96]	; 0x60
 8002902:	b993      	cbnz	r3, 800292a <SPI_CloseRxTx_ISR+0x50>
      if (hspi->State == HAL_SPI_STATE_BUSY_RX)
 8002904:	f894 305d 	ldrb.w	r3, [r4, #93]	; 0x5d
 8002908:	b2db      	uxtb	r3, r3
 800290a:	2b04      	cmp	r3, #4
 800290c:	d006      	beq.n	800291c <SPI_CloseRxTx_ISR+0x42>
        hspi->State = HAL_SPI_STATE_READY;
 800290e:	2301      	movs	r3, #1
 8002910:	f884 305d 	strb.w	r3, [r4, #93]	; 0x5d
        HAL_SPI_TxRxCpltCallback(hspi);
 8002914:	4620      	mov	r0, r4
 8002916:	f7ff ff92 	bl	800283e <HAL_SPI_TxRxCpltCallback>
 800291a:	bd10      	pop	{r4, pc}
        hspi->State = HAL_SPI_STATE_READY;
 800291c:	2301      	movs	r3, #1
 800291e:	f884 305d 	strb.w	r3, [r4, #93]	; 0x5d
        HAL_SPI_RxCpltCallback(hspi);
 8002922:	4620      	mov	r0, r4
 8002924:	f7ff ff8a 	bl	800283c <HAL_SPI_RxCpltCallback>
 8002928:	bd10      	pop	{r4, pc}
      hspi->State = HAL_SPI_STATE_READY;
 800292a:	2301      	movs	r3, #1
 800292c:	f884 305d 	strb.w	r3, [r4, #93]	; 0x5d
      HAL_SPI_ErrorCallback(hspi);
 8002930:	4620      	mov	r0, r4
 8002932:	f7fe fbcb 	bl	80010cc <HAL_SPI_ErrorCallback>
 8002936:	bd10      	pop	{r4, pc}

08002938 <SPI_2linesTxISR_8BIT>:
{
 8002938:	b508      	push	{r3, lr}
  if (hspi->TxXferCount >= 2U)
 800293a:	8fc3      	ldrh	r3, [r0, #62]	; 0x3e
 800293c:	b29b      	uxth	r3, r3
 800293e:	2b01      	cmp	r3, #1
 8002940:	d918      	bls.n	8002974 <SPI_2linesTxISR_8BIT+0x3c>
    hspi->Instance->DR = *((uint16_t *)hspi->pTxBuffPtr);
 8002942:	6803      	ldr	r3, [r0, #0]
 8002944:	6b82      	ldr	r2, [r0, #56]	; 0x38
 8002946:	8812      	ldrh	r2, [r2, #0]
 8002948:	60da      	str	r2, [r3, #12]
    hspi->pTxBuffPtr += sizeof(uint16_t);
 800294a:	6b83      	ldr	r3, [r0, #56]	; 0x38
 800294c:	3302      	adds	r3, #2
 800294e:	6383      	str	r3, [r0, #56]	; 0x38
    hspi->TxXferCount -= 2U;
 8002950:	8fc3      	ldrh	r3, [r0, #62]	; 0x3e
 8002952:	b29b      	uxth	r3, r3
 8002954:	3b02      	subs	r3, #2
 8002956:	b29b      	uxth	r3, r3
 8002958:	87c3      	strh	r3, [r0, #62]	; 0x3e
  if (hspi->TxXferCount == 0U)
 800295a:	8fc3      	ldrh	r3, [r0, #62]	; 0x3e
 800295c:	b29b      	uxth	r3, r3
 800295e:	b943      	cbnz	r3, 8002972 <SPI_2linesTxISR_8BIT+0x3a>
    __HAL_SPI_DISABLE_IT(hspi, SPI_IT_TXE);
 8002960:	6802      	ldr	r2, [r0, #0]
 8002962:	6853      	ldr	r3, [r2, #4]
 8002964:	f023 0380 	bic.w	r3, r3, #128	; 0x80
 8002968:	6053      	str	r3, [r2, #4]
    if (hspi->RxXferCount == 0U)
 800296a:	f8b0 3046 	ldrh.w	r3, [r0, #70]	; 0x46
 800296e:	b29b      	uxth	r3, r3
 8002970:	b163      	cbz	r3, 800298c <SPI_2linesTxISR_8BIT+0x54>
 8002972:	bd08      	pop	{r3, pc}
    *(__IO uint8_t *)&hspi->Instance->DR = (*hspi->pTxBuffPtr++);
 8002974:	6802      	ldr	r2, [r0, #0]
 8002976:	6b83      	ldr	r3, [r0, #56]	; 0x38
 8002978:	1c59      	adds	r1, r3, #1
 800297a:	6381      	str	r1, [r0, #56]	; 0x38
 800297c:	781b      	ldrb	r3, [r3, #0]
 800297e:	7313      	strb	r3, [r2, #12]
    hspi->TxXferCount--;
 8002980:	8fc3      	ldrh	r3, [r0, #62]	; 0x3e
 8002982:	b29b      	uxth	r3, r3
 8002984:	3b01      	subs	r3, #1
 8002986:	b29b      	uxth	r3, r3
 8002988:	87c3      	strh	r3, [r0, #62]	; 0x3e
 800298a:	e7e6      	b.n	800295a <SPI_2linesTxISR_8BIT+0x22>
      SPI_CloseRxTx_ISR(hspi);
 800298c:	f7ff ffa5 	bl	80028da <SPI_CloseRxTx_ISR>
}
 8002990:	e7ef      	b.n	8002972 <SPI_2linesTxISR_8BIT+0x3a>

08002992 <SPI_2linesRxISR_8BIT>:
{
 8002992:	b508      	push	{r3, lr}
  if (hspi->RxXferCount > 1U)
 8002994:	f8b0 3046 	ldrh.w	r3, [r0, #70]	; 0x46
 8002998:	b29b      	uxth	r3, r3
 800299a:	2b01      	cmp	r3, #1
 800299c:	d925      	bls.n	80029ea <SPI_2linesRxISR_8BIT+0x58>
    *((uint16_t *)hspi->pRxBuffPtr) = hspi->Instance->DR;
 800299e:	6c03      	ldr	r3, [r0, #64]	; 0x40
 80029a0:	6802      	ldr	r2, [r0, #0]
 80029a2:	68d2      	ldr	r2, [r2, #12]
 80029a4:	801a      	strh	r2, [r3, #0]
    hspi->pRxBuffPtr += sizeof(uint16_t);
 80029a6:	6c03      	ldr	r3, [r0, #64]	; 0x40
 80029a8:	3302      	adds	r3, #2
 80029aa:	6403      	str	r3, [r0, #64]	; 0x40
    hspi->RxXferCount -= 2U;
 80029ac:	f8b0 3046 	ldrh.w	r3, [r0, #70]	; 0x46
 80029b0:	b29b      	uxth	r3, r3
 80029b2:	3b02      	subs	r3, #2
 80029b4:	b29b      	uxth	r3, r3
 80029b6:	f8a0 3046 	strh.w	r3, [r0, #70]	; 0x46
    if (hspi->RxXferCount == 1U)
 80029ba:	f8b0 3046 	ldrh.w	r3, [r0, #70]	; 0x46
 80029be:	b29b      	uxth	r3, r3
 80029c0:	2b01      	cmp	r3, #1
 80029c2:	d00c      	beq.n	80029de <SPI_2linesRxISR_8BIT+0x4c>
  if (hspi->RxXferCount == 0U)
 80029c4:	f8b0 3046 	ldrh.w	r3, [r0, #70]	; 0x46
 80029c8:	b29b      	uxth	r3, r3
 80029ca:	b93b      	cbnz	r3, 80029dc <SPI_2linesRxISR_8BIT+0x4a>
    __HAL_SPI_DISABLE_IT(hspi, (SPI_IT_RXNE | SPI_IT_ERR));
 80029cc:	6802      	ldr	r2, [r0, #0]
 80029ce:	6853      	ldr	r3, [r2, #4]
 80029d0:	f023 0360 	bic.w	r3, r3, #96	; 0x60
 80029d4:	6053      	str	r3, [r2, #4]
    if (hspi->TxXferCount == 0U)
 80029d6:	8fc3      	ldrh	r3, [r0, #62]	; 0x3e
 80029d8:	b29b      	uxth	r3, r3
 80029da:	b1a3      	cbz	r3, 8002a06 <SPI_2linesRxISR_8BIT+0x74>
 80029dc:	bd08      	pop	{r3, pc}
      SET_BIT(hspi->Instance->CR2, SPI_RXFIFO_THRESHOLD);
 80029de:	6802      	ldr	r2, [r0, #0]
 80029e0:	6853      	ldr	r3, [r2, #4]
 80029e2:	f443 5380 	orr.w	r3, r3, #4096	; 0x1000
 80029e6:	6053      	str	r3, [r2, #4]
 80029e8:	e7ec      	b.n	80029c4 <SPI_2linesRxISR_8BIT+0x32>
    *hspi->pRxBuffPtr++ = *((__IO uint8_t *)&hspi->Instance->DR);
 80029ea:	6c03      	ldr	r3, [r0, #64]	; 0x40
 80029ec:	1c5a      	adds	r2, r3, #1
 80029ee:	6402      	str	r2, [r0, #64]	; 0x40
 80029f0:	6802      	ldr	r2, [r0, #0]
 80029f2:	7b12      	ldrb	r2, [r2, #12]
 80029f4:	701a      	strb	r2, [r3, #0]
    hspi->RxXferCount--;
 80029f6:	f8b0 3046 	ldrh.w	r3, [r0, #70]	; 0x46
 80029fa:	b29b      	uxth	r3, r3
 80029fc:	3b01      	subs	r3, #1
 80029fe:	b29b      	uxth	r3, r3
 8002a00:	f8a0 3046 	strh.w	r3, [r0, #70]	; 0x46
 8002a04:	e7de      	b.n	80029c4 <SPI_2linesRxISR_8BIT+0x32>
      SPI_CloseRxTx_ISR(hspi);
 8002a06:	f7ff ff68 	bl	80028da <SPI_CloseRxTx_ISR>
}
 8002a0a:	e7e7      	b.n	80029dc <SPI_2linesRxISR_8BIT+0x4a>

08002a0c <SPI_2linesTxISR_16BIT>:
{
 8002a0c:	b508      	push	{r3, lr}
  hspi->Instance->DR = *((uint16_t *)hspi->pTxBuffPtr);
 8002a0e:	6803      	ldr	r3, [r0, #0]
 8002a10:	6b82      	ldr	r2, [r0, #56]	; 0x38
 8002a12:	8812      	ldrh	r2, [r2, #0]
 8002a14:	60da      	str	r2, [r3, #12]
  hspi->pTxBuffPtr += sizeof(uint16_t);
 8002a16:	6b83      	ldr	r3, [r0, #56]	; 0x38
 8002a18:	3302      	adds	r3, #2
 8002a1a:	6383      	str	r3, [r0, #56]	; 0x38
  hspi->TxXferCount--;
 8002a1c:	8fc3      	ldrh	r3, [r0, #62]	; 0x3e
 8002a1e:	b29b      	uxth	r3, r3
 8002a20:	3b01      	subs	r3, #1
 8002a22:	b29b      	uxth	r3, r3
 8002a24:	87c3      	strh	r3, [r0, #62]	; 0x3e
  if (hspi->TxXferCount == 0U)
 8002a26:	8fc3      	ldrh	r3, [r0, #62]	; 0x3e
 8002a28:	b29b      	uxth	r3, r3
 8002a2a:	b943      	cbnz	r3, 8002a3e <SPI_2linesTxISR_16BIT+0x32>
    __HAL_SPI_DISABLE_IT(hspi, SPI_IT_TXE);
 8002a2c:	6802      	ldr	r2, [r0, #0]
 8002a2e:	6853      	ldr	r3, [r2, #4]
 8002a30:	f023 0380 	bic.w	r3, r3, #128	; 0x80
 8002a34:	6053      	str	r3, [r2, #4]
    if (hspi->RxXferCount == 0U)
 8002a36:	f8b0 3046 	ldrh.w	r3, [r0, #70]	; 0x46
 8002a3a:	b29b      	uxth	r3, r3
 8002a3c:	b103      	cbz	r3, 8002a40 <SPI_2linesTxISR_16BIT+0x34>
 8002a3e:	bd08      	pop	{r3, pc}
      SPI_CloseRxTx_ISR(hspi);
 8002a40:	f7ff ff4b 	bl	80028da <SPI_CloseRxTx_ISR>
}
 8002a44:	e7fb      	b.n	8002a3e <SPI_2linesTxISR_16BIT+0x32>

08002a46 <SPI_2linesRxISR_16BIT>:
{
 8002a46:	b508      	push	{r3, lr}
  *((uint16_t *)hspi->pRxBuffPtr) = hspi->Instance->DR;
 8002a48:	6c03      	ldr	r3, [r0, #64]	; 0x40
 8002a4a:	6802      	ldr	r2, [r0, #0]
 8002a4c:	68d2      	ldr	r2, [r2, #12]
 8002a4e:	801a      	strh	r2, [r3, #0]
  hspi->pRxBuffPtr += sizeof(uint16_t);
 8002a50:	6c03      	ldr	r3, [r0, #64]	; 0x40
 8002a52:	3302      	adds	r3, #2
 8002a54:	6403      	str	r3, [r0, #64]	; 0x40
  hspi->RxXferCount--;
 8002a56:	f8b0 3046 	ldrh.w	r3, [r0, #70]	; 0x46
 8002a5a:	b29b      	uxth	r3, r3
 8002a5c:	3b01      	subs	r3, #1
 8002a5e:	b29b      	uxth	r3, r3
 8002a60:	f8a0 3046 	strh.w	r3, [r0, #70]	; 0x46
  if (hspi->RxXferCount == 0U)
 8002a64:	f8b0 3046 	ldrh.w	r3, [r0, #70]	; 0x46
 8002a68:	b29b      	uxth	r3, r3
 8002a6a:	b93b      	cbnz	r3, 8002a7c <SPI_2linesRxISR_16BIT+0x36>
    __HAL_SPI_DISABLE_IT(hspi, SPI_IT_RXNE);
 8002a6c:	6802      	ldr	r2, [r0, #0]
 8002a6e:	6853      	ldr	r3, [r2, #4]
 8002a70:	f023 0340 	bic.w	r3, r3, #64	; 0x40
 8002a74:	6053      	str	r3, [r2, #4]
    if (hspi->TxXferCount == 0U)
 8002a76:	8fc3      	ldrh	r3, [r0, #62]	; 0x3e
 8002a78:	b29b      	uxth	r3, r3
 8002a7a:	b103      	cbz	r3, 8002a7e <SPI_2linesRxISR_16BIT+0x38>
 8002a7c:	bd08      	pop	{r3, pc}
      SPI_CloseRxTx_ISR(hspi);
 8002a7e:	f7ff ff2c 	bl	80028da <SPI_CloseRxTx_ISR>
}
 8002a82:	e7fb      	b.n	8002a7c <SPI_2linesRxISR_16BIT+0x36>

08002a84 <HAL_SPI_IRQHandler>:
{
 8002a84:	b510      	push	{r4, lr}
 8002a86:	b084      	sub	sp, #16
 8002a88:	4604      	mov	r4, r0
  uint32_t itsource = hspi->Instance->CR2;
 8002a8a:	6802      	ldr	r2, [r0, #0]
 8002a8c:	6851      	ldr	r1, [r2, #4]
  uint32_t itflag   = hspi->Instance->SR;
 8002a8e:	6893      	ldr	r3, [r2, #8]
  if (((itflag & SPI_FLAG_OVR) == RESET) &&
 8002a90:	f003 0041 	and.w	r0, r3, #65	; 0x41
 8002a94:	2801      	cmp	r0, #1
 8002a96:	d05c      	beq.n	8002b52 <HAL_SPI_IRQHandler+0xce>
  if (((itflag & SPI_FLAG_TXE) != RESET) && ((itsource & SPI_IT_TXE) != RESET))
 8002a98:	f013 0f02 	tst.w	r3, #2
 8002a9c:	d002      	beq.n	8002aa4 <HAL_SPI_IRQHandler+0x20>
 8002a9e:	f011 0f80 	tst.w	r1, #128	; 0x80
 8002aa2:	d15d      	bne.n	8002b60 <HAL_SPI_IRQHandler+0xdc>
  if (((itflag & (SPI_FLAG_MODF | SPI_FLAG_OVR | SPI_FLAG_FRE)) != RESET) && ((itsource & SPI_IT_ERR) != RESET))
 8002aa4:	f413 7fb0 	tst.w	r3, #352	; 0x160
 8002aa8:	d05d      	beq.n	8002b66 <HAL_SPI_IRQHandler+0xe2>
 8002aaa:	f011 0f20 	tst.w	r1, #32
 8002aae:	d05a      	beq.n	8002b66 <HAL_SPI_IRQHandler+0xe2>
    if ((itflag & SPI_FLAG_OVR) != RESET)
 8002ab0:	f013 0f40 	tst.w	r3, #64	; 0x40
 8002ab4:	d00f      	beq.n	8002ad6 <HAL_SPI_IRQHandler+0x52>
      if (hspi->State != HAL_SPI_STATE_BUSY_TX)
 8002ab6:	f894 005d 	ldrb.w	r0, [r4, #93]	; 0x5d
 8002aba:	b2c0      	uxtb	r0, r0
 8002abc:	2803      	cmp	r0, #3
 8002abe:	d054      	beq.n	8002b6a <HAL_SPI_IRQHandler+0xe6>
        SET_BIT(hspi->ErrorCode, HAL_SPI_ERROR_OVR);
 8002ac0:	6e20      	ldr	r0, [r4, #96]	; 0x60
 8002ac2:	f040 0004 	orr.w	r0, r0, #4
 8002ac6:	6620      	str	r0, [r4, #96]	; 0x60
        __HAL_SPI_CLEAR_OVRFLAG(hspi);
 8002ac8:	2000      	movs	r0, #0
 8002aca:	9000      	str	r0, [sp, #0]
 8002acc:	68d0      	ldr	r0, [r2, #12]
 8002ace:	9000      	str	r0, [sp, #0]
 8002ad0:	6890      	ldr	r0, [r2, #8]
 8002ad2:	9000      	str	r0, [sp, #0]
 8002ad4:	9800      	ldr	r0, [sp, #0]
    if ((itflag & SPI_FLAG_MODF) != RESET)
 8002ad6:	f013 0f20 	tst.w	r3, #32
 8002ada:	d00c      	beq.n	8002af6 <HAL_SPI_IRQHandler+0x72>
      SET_BIT(hspi->ErrorCode, HAL_SPI_ERROR_MODF);
 8002adc:	6e20      	ldr	r0, [r4, #96]	; 0x60
 8002ade:	f040 0001 	orr.w	r0, r0, #1
 8002ae2:	6620      	str	r0, [r4, #96]	; 0x60
      __HAL_SPI_CLEAR_MODFFLAG(hspi);
 8002ae4:	2000      	movs	r0, #0
 8002ae6:	9002      	str	r0, [sp, #8]
 8002ae8:	6890      	ldr	r0, [r2, #8]
 8002aea:	9002      	str	r0, [sp, #8]
 8002aec:	6810      	ldr	r0, [r2, #0]
 8002aee:	f020 0040 	bic.w	r0, r0, #64	; 0x40
 8002af2:	6010      	str	r0, [r2, #0]
 8002af4:	9a02      	ldr	r2, [sp, #8]
    if ((itflag & SPI_FLAG_FRE) != RESET)
 8002af6:	f413 7f80 	tst.w	r3, #256	; 0x100
 8002afa:	d009      	beq.n	8002b10 <HAL_SPI_IRQHandler+0x8c>
      SET_BIT(hspi->ErrorCode, HAL_SPI_ERROR_FRE);
 8002afc:	6e23      	ldr	r3, [r4, #96]	; 0x60
 8002afe:	f043 0308 	orr.w	r3, r3, #8
 8002b02:	6623      	str	r3, [r4, #96]	; 0x60
      __HAL_SPI_CLEAR_FREFLAG(hspi);
 8002b04:	2300      	movs	r3, #0
 8002b06:	9303      	str	r3, [sp, #12]
 8002b08:	6823      	ldr	r3, [r4, #0]
 8002b0a:	689b      	ldr	r3, [r3, #8]
 8002b0c:	9303      	str	r3, [sp, #12]
 8002b0e:	9b03      	ldr	r3, [sp, #12]
    if (hspi->ErrorCode != HAL_SPI_ERROR_NONE)
 8002b10:	6e23      	ldr	r3, [r4, #96]	; 0x60
 8002b12:	b343      	cbz	r3, 8002b66 <HAL_SPI_IRQHandler+0xe2>
      __HAL_SPI_DISABLE_IT(hspi, SPI_IT_RXNE | SPI_IT_TXE | SPI_IT_ERR);
 8002b14:	6822      	ldr	r2, [r4, #0]
 8002b16:	6853      	ldr	r3, [r2, #4]
 8002b18:	f023 03e0 	bic.w	r3, r3, #224	; 0xe0
 8002b1c:	6053      	str	r3, [r2, #4]
      hspi->State = HAL_SPI_STATE_READY;
 8002b1e:	2301      	movs	r3, #1
 8002b20:	f884 305d 	strb.w	r3, [r4, #93]	; 0x5d
      if ((HAL_IS_BIT_SET(itsource, SPI_CR2_TXDMAEN)) || (HAL_IS_BIT_SET(itsource, SPI_CR2_RXDMAEN)))
 8002b24:	f011 0f03 	tst.w	r1, #3
 8002b28:	d027      	beq.n	8002b7a <HAL_SPI_IRQHandler+0xf6>
        CLEAR_BIT(hspi->Instance->CR2, (SPI_CR2_TXDMAEN | SPI_CR2_RXDMAEN));
 8002b2a:	6822      	ldr	r2, [r4, #0]
 8002b2c:	6853      	ldr	r3, [r2, #4]
 8002b2e:	f023 0303 	bic.w	r3, r3, #3
 8002b32:	6053      	str	r3, [r2, #4]
        if (hspi->hdmarx != NULL)
 8002b34:	6da3      	ldr	r3, [r4, #88]	; 0x58
 8002b36:	b123      	cbz	r3, 8002b42 <HAL_SPI_IRQHandler+0xbe>
          hspi->hdmarx->XferAbortCallback = SPI_DMAAbortOnError;
 8002b38:	4a12      	ldr	r2, [pc, #72]	; (8002b84 <HAL_SPI_IRQHandler+0x100>)
 8002b3a:	639a      	str	r2, [r3, #56]	; 0x38
          HAL_DMA_Abort_IT(hspi->hdmarx);
 8002b3c:	6da0      	ldr	r0, [r4, #88]	; 0x58
 8002b3e:	f7fe fe0b 	bl	8001758 <HAL_DMA_Abort_IT>
        if (hspi->hdmatx != NULL)
 8002b42:	6d63      	ldr	r3, [r4, #84]	; 0x54
 8002b44:	b17b      	cbz	r3, 8002b66 <HAL_SPI_IRQHandler+0xe2>
          hspi->hdmatx->XferAbortCallback = SPI_DMAAbortOnError;
 8002b46:	4a0f      	ldr	r2, [pc, #60]	; (8002b84 <HAL_SPI_IRQHandler+0x100>)
 8002b48:	639a      	str	r2, [r3, #56]	; 0x38
          HAL_DMA_Abort_IT(hspi->hdmatx);
 8002b4a:	6d60      	ldr	r0, [r4, #84]	; 0x54
 8002b4c:	f7fe fe04 	bl	8001758 <HAL_DMA_Abort_IT>
 8002b50:	e009      	b.n	8002b66 <HAL_SPI_IRQHandler+0xe2>
      ((itflag & SPI_FLAG_RXNE) != RESET) && ((itsource & SPI_IT_RXNE) != RESET))
 8002b52:	f011 0f40 	tst.w	r1, #64	; 0x40
 8002b56:	d09f      	beq.n	8002a98 <HAL_SPI_IRQHandler+0x14>
    hspi->RxISR(hspi);
 8002b58:	6ce3      	ldr	r3, [r4, #76]	; 0x4c
 8002b5a:	4620      	mov	r0, r4
 8002b5c:	4798      	blx	r3
    return;
 8002b5e:	e002      	b.n	8002b66 <HAL_SPI_IRQHandler+0xe2>
    hspi->TxISR(hspi);
 8002b60:	6d23      	ldr	r3, [r4, #80]	; 0x50
 8002b62:	4620      	mov	r0, r4
 8002b64:	4798      	blx	r3
}
 8002b66:	b004      	add	sp, #16
 8002b68:	bd10      	pop	{r4, pc}
        __HAL_SPI_CLEAR_OVRFLAG(hspi);
 8002b6a:	2300      	movs	r3, #0
 8002b6c:	9301      	str	r3, [sp, #4]
 8002b6e:	68d3      	ldr	r3, [r2, #12]
 8002b70:	9301      	str	r3, [sp, #4]
 8002b72:	6893      	ldr	r3, [r2, #8]
 8002b74:	9301      	str	r3, [sp, #4]
 8002b76:	9b01      	ldr	r3, [sp, #4]
        return;
 8002b78:	e7f5      	b.n	8002b66 <HAL_SPI_IRQHandler+0xe2>
        HAL_SPI_ErrorCallback(hspi);
 8002b7a:	4620      	mov	r0, r4
 8002b7c:	f7fe faa6 	bl	80010cc <HAL_SPI_ErrorCallback>
 8002b80:	e7f1      	b.n	8002b66 <HAL_SPI_IRQHandler+0xe2>
 8002b82:	bf00      	nop
 8002b84:	08002b89 	.word	0x08002b89

08002b88 <SPI_DMAAbortOnError>:
{
 8002b88:	b508      	push	{r3, lr}
  SPI_HandleTypeDef *hspi = (SPI_HandleTypeDef *)((DMA_HandleTypeDef *)hdma)->Parent;
 8002b8a:	6a80      	ldr	r0, [r0, #40]	; 0x28
  hspi->RxXferCount = 0U;
 8002b8c:	2300      	movs	r3, #0
 8002b8e:	f8a0 3046 	strh.w	r3, [r0, #70]	; 0x46
  hspi->TxXferCount = 0U;
 8002b92:	87c3      	strh	r3, [r0, #62]	; 0x3e
  HAL_SPI_ErrorCallback(hspi);
 8002b94:	f7fe fa9a 	bl	80010cc <HAL_SPI_ErrorCallback>
 8002b98:	bd08      	pop	{r3, pc}

08002b9a <UART_EndRxTransfer>:
{
  /* Disable RXNE, PE and ERR (Frame error, noise error, overrun error) interrupts */
#if defined(USART_CR1_FIFOEN)
  CLEAR_BIT(huart->Instance->CR1, (USART_CR1_RXNEIE_RXFNEIE | USART_CR1_PEIE));
#else
  CLEAR_BIT(huart->Instance->CR1, (USART_CR1_RXNEIE | USART_CR1_PEIE));
 8002b9a:	6802      	ldr	r2, [r0, #0]
 8002b9c:	6813      	ldr	r3, [r2, #0]
 8002b9e:	f423 7390 	bic.w	r3, r3, #288	; 0x120
 8002ba2:	6013      	str	r3, [r2, #0]
#endif
  CLEAR_BIT(huart->Instance->CR3, USART_CR3_EIE);
 8002ba4:	6802      	ldr	r2, [r0, #0]
 8002ba6:	6893      	ldr	r3, [r2, #8]
 8002ba8:	f023 0301 	bic.w	r3, r3, #1
 8002bac:	6093      	str	r3, [r2, #8]

  /* At end of Rx process, restore huart->RxState to Ready */
  huart->RxState = HAL_UART_STATE_READY;
 8002bae:	2320      	movs	r3, #32
 8002bb0:	f880 3072 	strb.w	r3, [r0, #114]	; 0x72
  
  /* Reset RxIsr function pointer */
  huart->RxISR = NULL;
 8002bb4:	2300      	movs	r3, #0
 8002bb6:	6603      	str	r3, [r0, #96]	; 0x60
 8002bb8:	4770      	bx	lr

08002bba <UART_TxISR_8BIT>:
  * @retval None
  */
static void UART_TxISR_8BIT(UART_HandleTypeDef *huart)
{
  /* Check that a Tx process is ongoing */
  if (huart->gState == HAL_UART_STATE_BUSY_TX)
 8002bba:	f890 3071 	ldrb.w	r3, [r0, #113]	; 0x71
 8002bbe:	b2db      	uxtb	r3, r3
 8002bc0:	2b21      	cmp	r3, #33	; 0x21
 8002bc2:	d000      	beq.n	8002bc6 <UART_TxISR_8BIT+0xc>
 8002bc4:	4770      	bx	lr
  {
    if(huart->TxXferCount == 0)
 8002bc6:	f8b0 3052 	ldrh.w	r3, [r0, #82]	; 0x52
 8002bca:	b29b      	uxth	r3, r3
 8002bcc:	b16b      	cbz	r3, 8002bea <UART_TxISR_8BIT+0x30>
      /* Enable the UART Transmit Complete Interrupt */
      SET_BIT(huart->Instance->CR1, USART_CR1_TCIE);
    }
    else
    {
      huart->Instance->TDR = (uint8_t)(*huart->pTxBuffPtr++ & (uint8_t)0xFF);
 8002bce:	6802      	ldr	r2, [r0, #0]
 8002bd0:	6cc3      	ldr	r3, [r0, #76]	; 0x4c
 8002bd2:	1c59      	adds	r1, r3, #1
 8002bd4:	64c1      	str	r1, [r0, #76]	; 0x4c
 8002bd6:	781b      	ldrb	r3, [r3, #0]
 8002bd8:	8513      	strh	r3, [r2, #40]	; 0x28
      huart->TxXferCount--;
 8002bda:	f8b0 3052 	ldrh.w	r3, [r0, #82]	; 0x52
 8002bde:	b29b      	uxth	r3, r3
 8002be0:	3b01      	subs	r3, #1
 8002be2:	b29b      	uxth	r3, r3
 8002be4:	f8a0 3052 	strh.w	r3, [r0, #82]	; 0x52
    }
  }
}
 8002be8:	e7ec      	b.n	8002bc4 <UART_TxISR_8BIT+0xa>
      CLEAR_BIT(huart->Instance->CR1, USART_CR1_TXEIE);
 8002bea:	6802      	ldr	r2, [r0, #0]
 8002bec:	6813      	ldr	r3, [r2, #0]
 8002bee:	f023 0380 	bic.w	r3, r3, #128	; 0x80
 8002bf2:	6013      	str	r3, [r2, #0]
      SET_BIT(huart->Instance->CR1, USART_CR1_TCIE);
 8002bf4:	6802      	ldr	r2, [r0, #0]
 8002bf6:	6813      	ldr	r3, [r2, #0]
 8002bf8:	f043 0340 	orr.w	r3, r3, #64	; 0x40
 8002bfc:	6013      	str	r3, [r2, #0]
 8002bfe:	4770      	bx	lr

08002c00 <UART_TxISR_16BIT>:
static void UART_TxISR_16BIT(UART_HandleTypeDef *huart)
{
  uint16_t* tmp;
  
  /* Check that a Tx process is ongoing */
  if (huart->gState == HAL_UART_STATE_BUSY_TX)
 8002c00:	f890 3071 	ldrb.w	r3, [r0, #113]	; 0x71
 8002c04:	b2db      	uxtb	r3, r3
 8002c06:	2b21      	cmp	r3, #33	; 0x21
 8002c08:	d000      	beq.n	8002c0c <UART_TxISR_16BIT+0xc>
 8002c0a:	4770      	bx	lr
  {
    if(huart->TxXferCount == 0)
 8002c0c:	f8b0 3052 	ldrh.w	r3, [r0, #82]	; 0x52
 8002c10:	b29b      	uxth	r3, r3
 8002c12:	b183      	cbz	r3, 8002c36 <UART_TxISR_16BIT+0x36>
      /* Enable the UART Transmit Complete Interrupt */
      SET_BIT(huart->Instance->CR1, USART_CR1_TCIE);
    }
    else
    {
      tmp = (uint16_t*) huart->pTxBuffPtr;
 8002c14:	6cc3      	ldr	r3, [r0, #76]	; 0x4c
      huart->Instance->TDR = (*tmp & (uint16_t)0x01FF);
 8002c16:	6802      	ldr	r2, [r0, #0]
 8002c18:	881b      	ldrh	r3, [r3, #0]
 8002c1a:	f3c3 0308 	ubfx	r3, r3, #0, #9
 8002c1e:	8513      	strh	r3, [r2, #40]	; 0x28
      huart->pTxBuffPtr += 2;
 8002c20:	6cc3      	ldr	r3, [r0, #76]	; 0x4c
 8002c22:	3302      	adds	r3, #2
 8002c24:	64c3      	str	r3, [r0, #76]	; 0x4c
      huart->TxXferCount--;
 8002c26:	f8b0 3052 	ldrh.w	r3, [r0, #82]	; 0x52
 8002c2a:	b29b      	uxth	r3, r3
 8002c2c:	3b01      	subs	r3, #1
 8002c2e:	b29b      	uxth	r3, r3
 8002c30:	f8a0 3052 	strh.w	r3, [r0, #82]	; 0x52
    }
  }
}
 8002c34:	e7e9      	b.n	8002c0a <UART_TxISR_16BIT+0xa>
      CLEAR_BIT(huart->Instance->CR1, USART_CR1_TXEIE);
 8002c36:	6802      	ldr	r2, [r0, #0]
 8002c38:	6813      	ldr	r3, [r2, #0]
 8002c3a:	f023 0380 	bic.w	r3, r3, #128	; 0x80
 8002c3e:	6013      	str	r3, [r2, #0]
      SET_BIT(huart->Instance->CR1, USART_CR1_TCIE);
 8002c40:	6802      	ldr	r2, [r0, #0]
 8002c42:	6813      	ldr	r3, [r2, #0]
 8002c44:	f043 0340 	orr.w	r3, r3, #64	; 0x40
 8002c48:	6013      	str	r3, [r2, #0]
 8002c4a:	4770      	bx	lr

08002c4c <HAL_UART_DeInit>:
  if(huart == NULL)
 8002c4c:	b1d8      	cbz	r0, 8002c86 <HAL_UART_DeInit+0x3a>
{
 8002c4e:	b538      	push	{r3, r4, r5, lr}
 8002c50:	4604      	mov	r4, r0
  huart->gState = HAL_UART_STATE_BUSY;
 8002c52:	2324      	movs	r3, #36	; 0x24
 8002c54:	f880 3071 	strb.w	r3, [r0, #113]	; 0x71
  __HAL_UART_DISABLE(huart);
 8002c58:	6802      	ldr	r2, [r0, #0]
 8002c5a:	6813      	ldr	r3, [r2, #0]
 8002c5c:	f023 0301 	bic.w	r3, r3, #1
 8002c60:	6013      	str	r3, [r2, #0]
  huart->Instance->CR1 = 0x0U;
 8002c62:	6803      	ldr	r3, [r0, #0]
 8002c64:	2500      	movs	r5, #0
 8002c66:	601d      	str	r5, [r3, #0]
  huart->Instance->CR2 = 0x0U;
 8002c68:	6803      	ldr	r3, [r0, #0]
 8002c6a:	605d      	str	r5, [r3, #4]
  huart->Instance->CR3 = 0x0U;
 8002c6c:	6803      	ldr	r3, [r0, #0]
 8002c6e:	609d      	str	r5, [r3, #8]
  HAL_UART_MspDeInit(huart);
 8002c70:	f7fe fb90 	bl	8001394 <HAL_UART_MspDeInit>
  huart->ErrorCode = HAL_UART_ERROR_NONE;
 8002c74:	6765      	str	r5, [r4, #116]	; 0x74
  huart->gState = HAL_UART_STATE_RESET;
 8002c76:	f884 5071 	strb.w	r5, [r4, #113]	; 0x71
  huart->RxState = HAL_UART_STATE_RESET;
 8002c7a:	f884 5072 	strb.w	r5, [r4, #114]	; 0x72
  __HAL_UNLOCK(huart);
 8002c7e:	f884 5070 	strb.w	r5, [r4, #112]	; 0x70
  return HAL_OK;
 8002c82:	4628      	mov	r0, r5
 8002c84:	bd38      	pop	{r3, r4, r5, pc}
    return HAL_ERROR;
 8002c86:	2001      	movs	r0, #1
 8002c88:	4770      	bx	lr
	...

08002c8c <HAL_UART_Transmit_IT>:
  if(huart->gState == HAL_UART_STATE_READY)
 8002c8c:	f890 3071 	ldrb.w	r3, [r0, #113]	; 0x71
 8002c90:	b2db      	uxtb	r3, r3
 8002c92:	2b20      	cmp	r3, #32
 8002c94:	d001      	beq.n	8002c9a <HAL_UART_Transmit_IT+0xe>
    return HAL_BUSY;
 8002c96:	2002      	movs	r0, #2
 8002c98:	4770      	bx	lr
    if((pData == NULL ) || (Size == 0U))
 8002c9a:	b341      	cbz	r1, 8002cee <HAL_UART_Transmit_IT+0x62>
 8002c9c:	b34a      	cbz	r2, 8002cf2 <HAL_UART_Transmit_IT+0x66>
    __HAL_LOCK(huart);
 8002c9e:	f890 3070 	ldrb.w	r3, [r0, #112]	; 0x70
 8002ca2:	2b01      	cmp	r3, #1
 8002ca4:	d027      	beq.n	8002cf6 <HAL_UART_Transmit_IT+0x6a>
 8002ca6:	2301      	movs	r3, #1
 8002ca8:	f880 3070 	strb.w	r3, [r0, #112]	; 0x70
    huart->pTxBuffPtr  = pData;
 8002cac:	64c1      	str	r1, [r0, #76]	; 0x4c
    huart->TxXferSize  = Size;
 8002cae:	f8a0 2050 	strh.w	r2, [r0, #80]	; 0x50
    huart->TxXferCount = Size;
 8002cb2:	f8a0 2052 	strh.w	r2, [r0, #82]	; 0x52
    huart->TxISR       = NULL;
 8002cb6:	2300      	movs	r3, #0
 8002cb8:	6643      	str	r3, [r0, #100]	; 0x64
    huart->ErrorCode = HAL_UART_ERROR_NONE;
 8002cba:	6743      	str	r3, [r0, #116]	; 0x74
    huart->gState = HAL_UART_STATE_BUSY_TX;
 8002cbc:	2321      	movs	r3, #33	; 0x21
 8002cbe:	f880 3071 	strb.w	r3, [r0, #113]	; 0x71
      if ((huart->Init.WordLength == UART_WORDLENGTH_9B) && (huart->Init.Parity == UART_PARITY_NONE))
 8002cc2:	6883      	ldr	r3, [r0, #8]
 8002cc4:	f5b3 5f80 	cmp.w	r3, #4096	; 0x1000
 8002cc8:	d00b      	beq.n	8002ce2 <HAL_UART_Transmit_IT+0x56>
        huart->TxISR = UART_TxISR_8BIT;
 8002cca:	4b0c      	ldr	r3, [pc, #48]	; (8002cfc <HAL_UART_Transmit_IT+0x70>)
 8002ccc:	6643      	str	r3, [r0, #100]	; 0x64
      __HAL_UNLOCK(huart);
 8002cce:	2300      	movs	r3, #0
 8002cd0:	f880 3070 	strb.w	r3, [r0, #112]	; 0x70
      SET_BIT(huart->Instance->CR1, USART_CR1_TXEIE);  
 8002cd4:	6801      	ldr	r1, [r0, #0]
 8002cd6:	680a      	ldr	r2, [r1, #0]
 8002cd8:	f042 0280 	orr.w	r2, r2, #128	; 0x80
 8002cdc:	600a      	str	r2, [r1, #0]
    return HAL_OK;
 8002cde:	4618      	mov	r0, r3
 8002ce0:	4770      	bx	lr
      if ((huart->Init.WordLength == UART_WORDLENGTH_9B) && (huart->Init.Parity == UART_PARITY_NONE))
 8002ce2:	6903      	ldr	r3, [r0, #16]
 8002ce4:	2b00      	cmp	r3, #0
 8002ce6:	d1f0      	bne.n	8002cca <HAL_UART_Transmit_IT+0x3e>
        huart->TxISR = UART_TxISR_16BIT;
 8002ce8:	4b05      	ldr	r3, [pc, #20]	; (8002d00 <HAL_UART_Transmit_IT+0x74>)
 8002cea:	6643      	str	r3, [r0, #100]	; 0x64
 8002cec:	e7ef      	b.n	8002cce <HAL_UART_Transmit_IT+0x42>
      return HAL_ERROR;
 8002cee:	2001      	movs	r0, #1
 8002cf0:	4770      	bx	lr
 8002cf2:	2001      	movs	r0, #1
 8002cf4:	4770      	bx	lr
    __HAL_LOCK(huart);
 8002cf6:	2002      	movs	r0, #2
}
 8002cf8:	4770      	bx	lr
 8002cfa:	bf00      	nop
 8002cfc:	08002bbb 	.word	0x08002bbb
 8002d00:	08002c01 	.word	0x08002c01

08002d04 <HAL_UART_Receive_IT>:
  if(huart->RxState == HAL_UART_STATE_READY)
 8002d04:	f890 3072 	ldrb.w	r3, [r0, #114]	; 0x72
 8002d08:	b2db      	uxtb	r3, r3
 8002d0a:	2b20      	cmp	r3, #32
 8002d0c:	d001      	beq.n	8002d12 <HAL_UART_Receive_IT+0xe>
    return HAL_BUSY;
 8002d0e:	2002      	movs	r0, #2
 8002d10:	4770      	bx	lr
    if((pData == NULL ) || (Size == 0U))
 8002d12:	2900      	cmp	r1, #0
 8002d14:	d056      	beq.n	8002dc4 <HAL_UART_Receive_IT+0xc0>
 8002d16:	2a00      	cmp	r2, #0
 8002d18:	d056      	beq.n	8002dc8 <HAL_UART_Receive_IT+0xc4>
    __HAL_LOCK(huart);
 8002d1a:	f890 3070 	ldrb.w	r3, [r0, #112]	; 0x70
 8002d1e:	2b01      	cmp	r3, #1
 8002d20:	d054      	beq.n	8002dcc <HAL_UART_Receive_IT+0xc8>
 8002d22:	2301      	movs	r3, #1
 8002d24:	f880 3070 	strb.w	r3, [r0, #112]	; 0x70
    huart->pRxBuffPtr  = pData;
 8002d28:	6541      	str	r1, [r0, #84]	; 0x54
    huart->RxXferSize  = Size;
 8002d2a:	f8a0 2058 	strh.w	r2, [r0, #88]	; 0x58
    huart->RxXferCount = Size;
 8002d2e:	f8a0 205a 	strh.w	r2, [r0, #90]	; 0x5a
    huart->RxISR       = NULL;
 8002d32:	2300      	movs	r3, #0
 8002d34:	6603      	str	r3, [r0, #96]	; 0x60
    UART_MASK_COMPUTATION(huart);
 8002d36:	6883      	ldr	r3, [r0, #8]
 8002d38:	f5b3 5f80 	cmp.w	r3, #4096	; 0x1000
 8002d3c:	d006      	beq.n	8002d4c <HAL_UART_Receive_IT+0x48>
 8002d3e:	b9a3      	cbnz	r3, 8002d6a <HAL_UART_Receive_IT+0x66>
 8002d40:	6903      	ldr	r3, [r0, #16]
 8002d42:	b973      	cbnz	r3, 8002d62 <HAL_UART_Receive_IT+0x5e>
 8002d44:	23ff      	movs	r3, #255	; 0xff
 8002d46:	f8a0 305c 	strh.w	r3, [r0, #92]	; 0x5c
 8002d4a:	e011      	b.n	8002d70 <HAL_UART_Receive_IT+0x6c>
 8002d4c:	6903      	ldr	r3, [r0, #16]
 8002d4e:	b923      	cbnz	r3, 8002d5a <HAL_UART_Receive_IT+0x56>
 8002d50:	f240 13ff 	movw	r3, #511	; 0x1ff
 8002d54:	f8a0 305c 	strh.w	r3, [r0, #92]	; 0x5c
 8002d58:	e00a      	b.n	8002d70 <HAL_UART_Receive_IT+0x6c>
 8002d5a:	23ff      	movs	r3, #255	; 0xff
 8002d5c:	f8a0 305c 	strh.w	r3, [r0, #92]	; 0x5c
 8002d60:	e006      	b.n	8002d70 <HAL_UART_Receive_IT+0x6c>
 8002d62:	237f      	movs	r3, #127	; 0x7f
 8002d64:	f8a0 305c 	strh.w	r3, [r0, #92]	; 0x5c
 8002d68:	e002      	b.n	8002d70 <HAL_UART_Receive_IT+0x6c>
 8002d6a:	f1b3 5f80 	cmp.w	r3, #268435456	; 0x10000000
 8002d6e:	d019      	beq.n	8002da4 <HAL_UART_Receive_IT+0xa0>
    huart->ErrorCode = HAL_UART_ERROR_NONE;
 8002d70:	2300      	movs	r3, #0
 8002d72:	6743      	str	r3, [r0, #116]	; 0x74
    huart->RxState = HAL_UART_STATE_BUSY_RX;
 8002d74:	2322      	movs	r3, #34	; 0x22
 8002d76:	f880 3072 	strb.w	r3, [r0, #114]	; 0x72
    SET_BIT(huart->Instance->CR3, USART_CR3_EIE);
 8002d7a:	6802      	ldr	r2, [r0, #0]
 8002d7c:	6893      	ldr	r3, [r2, #8]
 8002d7e:	f043 0301 	orr.w	r3, r3, #1
 8002d82:	6093      	str	r3, [r2, #8]
      if ((huart->Init.WordLength == UART_WORDLENGTH_9B) && (huart->Init.Parity == UART_PARITY_NONE))
 8002d84:	6883      	ldr	r3, [r0, #8]
 8002d86:	f5b3 5f80 	cmp.w	r3, #4096	; 0x1000
 8002d8a:	d015      	beq.n	8002db8 <HAL_UART_Receive_IT+0xb4>
        huart->RxISR = UART_RxISR_8BIT;
 8002d8c:	4b10      	ldr	r3, [pc, #64]	; (8002dd0 <HAL_UART_Receive_IT+0xcc>)
 8002d8e:	6603      	str	r3, [r0, #96]	; 0x60
      __HAL_UNLOCK(huart);
 8002d90:	2300      	movs	r3, #0
 8002d92:	f880 3070 	strb.w	r3, [r0, #112]	; 0x70
      SET_BIT(huart->Instance->CR1, USART_CR1_PEIE | USART_CR1_RXNEIE);
 8002d96:	6801      	ldr	r1, [r0, #0]
 8002d98:	680a      	ldr	r2, [r1, #0]
 8002d9a:	f442 7290 	orr.w	r2, r2, #288	; 0x120
 8002d9e:	600a      	str	r2, [r1, #0]
    return HAL_OK;
 8002da0:	4618      	mov	r0, r3
 8002da2:	4770      	bx	lr
    UART_MASK_COMPUTATION(huart);
 8002da4:	6903      	ldr	r3, [r0, #16]
 8002da6:	b91b      	cbnz	r3, 8002db0 <HAL_UART_Receive_IT+0xac>
 8002da8:	237f      	movs	r3, #127	; 0x7f
 8002daa:	f8a0 305c 	strh.w	r3, [r0, #92]	; 0x5c
 8002dae:	e7df      	b.n	8002d70 <HAL_UART_Receive_IT+0x6c>
 8002db0:	233f      	movs	r3, #63	; 0x3f
 8002db2:	f8a0 305c 	strh.w	r3, [r0, #92]	; 0x5c
 8002db6:	e7db      	b.n	8002d70 <HAL_UART_Receive_IT+0x6c>
      if ((huart->Init.WordLength == UART_WORDLENGTH_9B) && (huart->Init.Parity == UART_PARITY_NONE))
 8002db8:	6903      	ldr	r3, [r0, #16]
 8002dba:	2b00      	cmp	r3, #0
 8002dbc:	d1e6      	bne.n	8002d8c <HAL_UART_Receive_IT+0x88>
        huart->RxISR = UART_RxISR_16BIT;
 8002dbe:	4b05      	ldr	r3, [pc, #20]	; (8002dd4 <HAL_UART_Receive_IT+0xd0>)
 8002dc0:	6603      	str	r3, [r0, #96]	; 0x60
 8002dc2:	e7e5      	b.n	8002d90 <HAL_UART_Receive_IT+0x8c>
      return HAL_ERROR;
 8002dc4:	2001      	movs	r0, #1
 8002dc6:	4770      	bx	lr
 8002dc8:	2001      	movs	r0, #1
 8002dca:	4770      	bx	lr
    __HAL_LOCK(huart);
 8002dcc:	2002      	movs	r0, #2
}
 8002dce:	4770      	bx	lr
 8002dd0:	08002df5 	.word	0x08002df5
 8002dd4:	08002e59 	.word	0x08002e59

08002dd8 <UART_EndTransmit_IT>:
  * @param huart pointer to a UART_HandleTypeDef structure that contains
  *                the configuration information for the specified UART module.
  * @retval None
  */
static void UART_EndTransmit_IT(UART_HandleTypeDef *huart)
{
 8002dd8:	b508      	push	{r3, lr}
  /* Disable the UART Transmit Complete Interrupt */
  CLEAR_BIT(huart->Instance->CR1, USART_CR1_TCIE);
 8002dda:	6801      	ldr	r1, [r0, #0]
 8002ddc:	680a      	ldr	r2, [r1, #0]
 8002dde:	f022 0240 	bic.w	r2, r2, #64	; 0x40
 8002de2:	600a      	str	r2, [r1, #0]
  
  /* Tx process is ended, restore huart->gState to Ready */
  huart->gState = HAL_UART_STATE_READY;
 8002de4:	2220      	movs	r2, #32
 8002de6:	f880 2071 	strb.w	r2, [r0, #113]	; 0x71
  
  /* Cleat TxISR function pointer */
  huart->TxISR = NULL;
 8002dea:	2200      	movs	r2, #0
 8002dec:	6642      	str	r2, [r0, #100]	; 0x64
  
  HAL_UART_TxCpltCallback(huart);
 8002dee:	f7fe faf3 	bl	80013d8 <HAL_UART_TxCpltCallback>
 8002df2:	bd08      	pop	{r3, pc}

08002df4 <UART_RxISR_8BIT>:
  * @param huart UART handle.
  * @retval None
  */
static void UART_RxISR_8BIT(UART_HandleTypeDef *huart)
{
  uint16_t uhMask = huart->Mask;
 8002df4:	f8b0 205c 	ldrh.w	r2, [r0, #92]	; 0x5c
  uint16_t  uhdata;
  
  /* Check that a Rx process is ongoing */
  if(huart->RxState == HAL_UART_STATE_BUSY_RX)
 8002df8:	f890 3072 	ldrb.w	r3, [r0, #114]	; 0x72
 8002dfc:	b2db      	uxtb	r3, r3
 8002dfe:	2b22      	cmp	r3, #34	; 0x22
 8002e00:	d006      	beq.n	8002e10 <UART_RxISR_8BIT+0x1c>
    }
  }
  else
  {
    /* Clear RXNE interrupt flag */
    __HAL_UART_SEND_REQ(huart, UART_RXDATA_FLUSH_REQUEST);
 8002e02:	6802      	ldr	r2, [r0, #0]
 8002e04:	8b13      	ldrh	r3, [r2, #24]
 8002e06:	b29b      	uxth	r3, r3
 8002e08:	f043 0308 	orr.w	r3, r3, #8
 8002e0c:	8313      	strh	r3, [r2, #24]
  }
}
 8002e0e:	4770      	bx	lr
{
 8002e10:	b510      	push	{r4, lr}
    uhdata = (uint16_t) READ_REG(huart->Instance->RDR);
 8002e12:	6803      	ldr	r3, [r0, #0]
 8002e14:	8c99      	ldrh	r1, [r3, #36]	; 0x24
    *huart->pRxBuffPtr++ = (uint8_t)(uhdata & (uint8_t)uhMask);
 8002e16:	6d43      	ldr	r3, [r0, #84]	; 0x54
 8002e18:	1c5c      	adds	r4, r3, #1
 8002e1a:	6544      	str	r4, [r0, #84]	; 0x54
 8002e1c:	b2d2      	uxtb	r2, r2
 8002e1e:	400a      	ands	r2, r1
 8002e20:	701a      	strb	r2, [r3, #0]
    if(--huart->RxXferCount == 0)
 8002e22:	f8b0 305a 	ldrh.w	r3, [r0, #90]	; 0x5a
 8002e26:	b29b      	uxth	r3, r3
 8002e28:	3b01      	subs	r3, #1
 8002e2a:	b29b      	uxth	r3, r3
 8002e2c:	f8a0 305a 	strh.w	r3, [r0, #90]	; 0x5a
 8002e30:	b103      	cbz	r3, 8002e34 <UART_RxISR_8BIT+0x40>
 8002e32:	bd10      	pop	{r4, pc}
      CLEAR_BIT(huart->Instance->CR1, (USART_CR1_RXNEIE | USART_CR1_PEIE));
 8002e34:	6802      	ldr	r2, [r0, #0]
 8002e36:	6813      	ldr	r3, [r2, #0]
 8002e38:	f423 7390 	bic.w	r3, r3, #288	; 0x120
 8002e3c:	6013      	str	r3, [r2, #0]
      CLEAR_BIT(huart->Instance->CR3, USART_CR3_EIE);
 8002e3e:	6802      	ldr	r2, [r0, #0]
 8002e40:	6893      	ldr	r3, [r2, #8]
 8002e42:	f023 0301 	bic.w	r3, r3, #1
 8002e46:	6093      	str	r3, [r2, #8]
      huart->RxState = HAL_UART_STATE_READY;
 8002e48:	2320      	movs	r3, #32
 8002e4a:	f880 3072 	strb.w	r3, [r0, #114]	; 0x72
      huart->RxISR = NULL;
 8002e4e:	2300      	movs	r3, #0
 8002e50:	6603      	str	r3, [r0, #96]	; 0x60
      HAL_UART_RxCpltCallback(huart);
 8002e52:	f7fe faff 	bl	8001454 <HAL_UART_RxCpltCallback>
 8002e56:	bd10      	pop	{r4, pc}

08002e58 <UART_RxISR_16BIT>:
  *         interruptions have been enabled by HAL_UART_Receive_IT()
  * @param huart UART handle.
  * @retval None
  */
static void UART_RxISR_16BIT(UART_HandleTypeDef *huart)
{
 8002e58:	b508      	push	{r3, lr}
  uint16_t* tmp;
  uint16_t uhMask = huart->Mask;
 8002e5a:	f8b0 205c 	ldrh.w	r2, [r0, #92]	; 0x5c
  uint16_t  uhdata;
  
  /* Check that a Rx process is ongoing */
  if(huart->RxState == HAL_UART_STATE_BUSY_RX)
 8002e5e:	f890 3072 	ldrb.w	r3, [r0, #114]	; 0x72
 8002e62:	b2db      	uxtb	r3, r3
 8002e64:	2b22      	cmp	r3, #34	; 0x22
 8002e66:	d006      	beq.n	8002e76 <UART_RxISR_16BIT+0x1e>
    }
  }
  else
  {
    /* Clear RXNE interrupt flag */
    __HAL_UART_SEND_REQ(huart, UART_RXDATA_FLUSH_REQUEST);
 8002e68:	6802      	ldr	r2, [r0, #0]
 8002e6a:	8b13      	ldrh	r3, [r2, #24]
 8002e6c:	b29b      	uxth	r3, r3
 8002e6e:	f043 0308 	orr.w	r3, r3, #8
 8002e72:	8313      	strh	r3, [r2, #24]
 8002e74:	bd08      	pop	{r3, pc}
    uhdata = (uint16_t) READ_REG(huart->Instance->RDR);
 8002e76:	6803      	ldr	r3, [r0, #0]
 8002e78:	8c99      	ldrh	r1, [r3, #36]	; 0x24
    tmp = (uint16_t*) huart->pRxBuffPtr ;
 8002e7a:	6d43      	ldr	r3, [r0, #84]	; 0x54
    *tmp = (uint16_t)(uhdata & uhMask);
 8002e7c:	400a      	ands	r2, r1
 8002e7e:	801a      	strh	r2, [r3, #0]
    huart->pRxBuffPtr +=2;
 8002e80:	6d43      	ldr	r3, [r0, #84]	; 0x54
 8002e82:	3302      	adds	r3, #2
 8002e84:	6543      	str	r3, [r0, #84]	; 0x54
    if(--huart->RxXferCount == 0)
 8002e86:	f8b0 305a 	ldrh.w	r3, [r0, #90]	; 0x5a
 8002e8a:	b29b      	uxth	r3, r3
 8002e8c:	3b01      	subs	r3, #1
 8002e8e:	b29b      	uxth	r3, r3
 8002e90:	f8a0 305a 	strh.w	r3, [r0, #90]	; 0x5a
 8002e94:	2b00      	cmp	r3, #0
 8002e96:	d1ed      	bne.n	8002e74 <UART_RxISR_16BIT+0x1c>
      CLEAR_BIT(huart->Instance->CR1, (USART_CR1_RXNEIE | USART_CR1_PEIE));
 8002e98:	6802      	ldr	r2, [r0, #0]
 8002e9a:	6813      	ldr	r3, [r2, #0]
 8002e9c:	f423 7390 	bic.w	r3, r3, #288	; 0x120
 8002ea0:	6013      	str	r3, [r2, #0]
      CLEAR_BIT(huart->Instance->CR3, USART_CR3_EIE);
 8002ea2:	6802      	ldr	r2, [r0, #0]
 8002ea4:	6893      	ldr	r3, [r2, #8]
 8002ea6:	f023 0301 	bic.w	r3, r3, #1
 8002eaa:	6093      	str	r3, [r2, #8]
      huart->RxState = HAL_UART_STATE_READY;
 8002eac:	2320      	movs	r3, #32
 8002eae:	f880 3072 	strb.w	r3, [r0, #114]	; 0x72
      huart->RxISR = NULL;
 8002eb2:	2300      	movs	r3, #0
 8002eb4:	6603      	str	r3, [r0, #96]	; 0x60
      HAL_UART_RxCpltCallback(huart);
 8002eb6:	f7fe facd 	bl	8001454 <HAL_UART_RxCpltCallback>
 8002eba:	bd08      	pop	{r3, pc}

08002ebc <HAL_UART_IRQHandler>:
{
 8002ebc:	b538      	push	{r3, r4, r5, lr}
 8002ebe:	4604      	mov	r4, r0
  uint32_t isrflags   = READ_REG(huart->Instance->ISR);
 8002ec0:	6802      	ldr	r2, [r0, #0]
 8002ec2:	69d3      	ldr	r3, [r2, #28]
  uint32_t cr1its     = READ_REG(huart->Instance->CR1);
 8002ec4:	6811      	ldr	r1, [r2, #0]
  uint32_t cr3its     = READ_REG(huart->Instance->CR3);
 8002ec6:	6890      	ldr	r0, [r2, #8]
  if (errorflags == RESET)
 8002ec8:	f013 050f 	ands.w	r5, r3, #15
 8002ecc:	d10c      	bne.n	8002ee8 <HAL_UART_IRQHandler+0x2c>
    if(((isrflags & USART_ISR_RXNE) != RESET)
 8002ece:	f013 0f20 	tst.w	r3, #32
 8002ed2:	d009      	beq.n	8002ee8 <HAL_UART_IRQHandler+0x2c>
       && ((cr1its & USART_CR1_RXNEIE) != RESET))
 8002ed4:	f011 0f20 	tst.w	r1, #32
 8002ed8:	d006      	beq.n	8002ee8 <HAL_UART_IRQHandler+0x2c>
      if (huart->RxISR != NULL) {huart->RxISR(huart);}
 8002eda:	6e23      	ldr	r3, [r4, #96]	; 0x60
 8002edc:	2b00      	cmp	r3, #0
 8002ede:	f000 8099 	beq.w	8003014 <HAL_UART_IRQHandler+0x158>
 8002ee2:	4620      	mov	r0, r4
 8002ee4:	4798      	blx	r3
 8002ee6:	bd38      	pop	{r3, r4, r5, pc}
  if(   (errorflags != RESET)
 8002ee8:	2d00      	cmp	r5, #0
 8002eea:	d070      	beq.n	8002fce <HAL_UART_IRQHandler+0x112>
     && (   ((cr3its & USART_CR3_EIE) != RESET)
 8002eec:	f010 0501 	ands.w	r5, r0, #1
 8002ef0:	d102      	bne.n	8002ef8 <HAL_UART_IRQHandler+0x3c>
         || ((cr1its & (USART_CR1_RXNEIE | USART_CR1_PEIE)) != RESET)) )
 8002ef2:	f411 7f90 	tst.w	r1, #288	; 0x120
 8002ef6:	d06a      	beq.n	8002fce <HAL_UART_IRQHandler+0x112>
    if(((isrflags & USART_ISR_PE) != RESET) && ((cr1its & USART_CR1_PEIE) != RESET))
 8002ef8:	f013 0f01 	tst.w	r3, #1
 8002efc:	d007      	beq.n	8002f0e <HAL_UART_IRQHandler+0x52>
 8002efe:	f411 7f80 	tst.w	r1, #256	; 0x100
 8002f02:	d004      	beq.n	8002f0e <HAL_UART_IRQHandler+0x52>
      __HAL_UART_CLEAR_FLAG(huart, UART_CLEAR_PEF);
 8002f04:	2001      	movs	r0, #1
 8002f06:	6210      	str	r0, [r2, #32]
      huart->ErrorCode |= HAL_UART_ERROR_PE;
 8002f08:	6f62      	ldr	r2, [r4, #116]	; 0x74
 8002f0a:	4302      	orrs	r2, r0
 8002f0c:	6762      	str	r2, [r4, #116]	; 0x74
    if(((isrflags & USART_ISR_FE) != RESET) && ((cr3its & USART_CR3_EIE) != RESET))
 8002f0e:	f013 0f02 	tst.w	r3, #2
 8002f12:	d007      	beq.n	8002f24 <HAL_UART_IRQHandler+0x68>
 8002f14:	b135      	cbz	r5, 8002f24 <HAL_UART_IRQHandler+0x68>
      __HAL_UART_CLEAR_FLAG(huart, UART_CLEAR_FEF);
 8002f16:	6822      	ldr	r2, [r4, #0]
 8002f18:	2002      	movs	r0, #2
 8002f1a:	6210      	str	r0, [r2, #32]
      huart->ErrorCode |= HAL_UART_ERROR_FE;
 8002f1c:	6f62      	ldr	r2, [r4, #116]	; 0x74
 8002f1e:	f042 0204 	orr.w	r2, r2, #4
 8002f22:	6762      	str	r2, [r4, #116]	; 0x74
    if(((isrflags & USART_ISR_NE) != RESET) && ((cr3its & USART_CR3_EIE) != RESET))
 8002f24:	f013 0f04 	tst.w	r3, #4
 8002f28:	d007      	beq.n	8002f3a <HAL_UART_IRQHandler+0x7e>
 8002f2a:	b135      	cbz	r5, 8002f3a <HAL_UART_IRQHandler+0x7e>
      __HAL_UART_CLEAR_FLAG(huart, UART_CLEAR_NEF);
 8002f2c:	6822      	ldr	r2, [r4, #0]
 8002f2e:	2004      	movs	r0, #4
 8002f30:	6210      	str	r0, [r2, #32]
      huart->ErrorCode |= HAL_UART_ERROR_NE;
 8002f32:	6f62      	ldr	r2, [r4, #116]	; 0x74
 8002f34:	f042 0202 	orr.w	r2, r2, #2
 8002f38:	6762      	str	r2, [r4, #116]	; 0x74
    if(   ((isrflags & USART_ISR_ORE) != RESET)
 8002f3a:	f013 0f08 	tst.w	r3, #8
 8002f3e:	d009      	beq.n	8002f54 <HAL_UART_IRQHandler+0x98>
       &&(  ((cr1its & USART_CR1_RXNEIE) != RESET) ||
 8002f40:	f011 0f20 	tst.w	r1, #32
 8002f44:	d100      	bne.n	8002f48 <HAL_UART_IRQHandler+0x8c>
 8002f46:	b12d      	cbz	r5, 8002f54 <HAL_UART_IRQHandler+0x98>
      __HAL_UART_CLEAR_FLAG(huart, UART_CLEAR_OREF);
 8002f48:	6822      	ldr	r2, [r4, #0]
 8002f4a:	2008      	movs	r0, #8
 8002f4c:	6210      	str	r0, [r2, #32]
      huart->ErrorCode |= HAL_UART_ERROR_ORE;
 8002f4e:	6f62      	ldr	r2, [r4, #116]	; 0x74
 8002f50:	4302      	orrs	r2, r0
 8002f52:	6762      	str	r2, [r4, #116]	; 0x74
    if(huart->ErrorCode != HAL_UART_ERROR_NONE)
 8002f54:	6f62      	ldr	r2, [r4, #116]	; 0x74
 8002f56:	2a00      	cmp	r2, #0
 8002f58:	d05c      	beq.n	8003014 <HAL_UART_IRQHandler+0x158>
      if(((isrflags & USART_ISR_RXNE) != RESET)
 8002f5a:	f013 0f20 	tst.w	r3, #32
 8002f5e:	d006      	beq.n	8002f6e <HAL_UART_IRQHandler+0xb2>
         && ((cr1its & USART_CR1_RXNEIE) != RESET))
 8002f60:	f011 0f20 	tst.w	r1, #32
 8002f64:	d003      	beq.n	8002f6e <HAL_UART_IRQHandler+0xb2>
        if (huart->RxISR != NULL) {huart->RxISR(huart);}
 8002f66:	6e23      	ldr	r3, [r4, #96]	; 0x60
 8002f68:	b10b      	cbz	r3, 8002f6e <HAL_UART_IRQHandler+0xb2>
 8002f6a:	4620      	mov	r0, r4
 8002f6c:	4798      	blx	r3
      if (((huart->ErrorCode & HAL_UART_ERROR_ORE) != RESET) ||
 8002f6e:	6f63      	ldr	r3, [r4, #116]	; 0x74
 8002f70:	f013 0f08 	tst.w	r3, #8
 8002f74:	d104      	bne.n	8002f80 <HAL_UART_IRQHandler+0xc4>
          (HAL_IS_BIT_SET(huart->Instance->CR3, USART_CR3_DMAR)))
 8002f76:	6823      	ldr	r3, [r4, #0]
 8002f78:	689b      	ldr	r3, [r3, #8]
      if (((huart->ErrorCode & HAL_UART_ERROR_ORE) != RESET) ||
 8002f7a:	f013 0f40 	tst.w	r3, #64	; 0x40
 8002f7e:	d020      	beq.n	8002fc2 <HAL_UART_IRQHandler+0x106>
        UART_EndRxTransfer(huart);
 8002f80:	4620      	mov	r0, r4
 8002f82:	f7ff fe0a 	bl	8002b9a <UART_EndRxTransfer>
        if (HAL_IS_BIT_SET(huart->Instance->CR3, USART_CR3_DMAR))
 8002f86:	6823      	ldr	r3, [r4, #0]
 8002f88:	689a      	ldr	r2, [r3, #8]
 8002f8a:	f012 0f40 	tst.w	r2, #64	; 0x40
 8002f8e:	d014      	beq.n	8002fba <HAL_UART_IRQHandler+0xfe>
          CLEAR_BIT(huart->Instance->CR3, USART_CR3_DMAR);
 8002f90:	689a      	ldr	r2, [r3, #8]
 8002f92:	f022 0240 	bic.w	r2, r2, #64	; 0x40
 8002f96:	609a      	str	r2, [r3, #8]
          if(huart->hdmarx != NULL)
 8002f98:	6ee3      	ldr	r3, [r4, #108]	; 0x6c
 8002f9a:	b153      	cbz	r3, 8002fb2 <HAL_UART_IRQHandler+0xf6>
            huart->hdmarx->XferAbortCallback = UART_DMAAbortOnError;
 8002f9c:	4a20      	ldr	r2, [pc, #128]	; (8003020 <HAL_UART_IRQHandler+0x164>)
 8002f9e:	639a      	str	r2, [r3, #56]	; 0x38
            if(HAL_DMA_Abort_IT(huart->hdmarx) != HAL_OK)
 8002fa0:	6ee0      	ldr	r0, [r4, #108]	; 0x6c
 8002fa2:	f7fe fbd9 	bl	8001758 <HAL_DMA_Abort_IT>
 8002fa6:	2800      	cmp	r0, #0
 8002fa8:	d034      	beq.n	8003014 <HAL_UART_IRQHandler+0x158>
              huart->hdmarx->XferAbortCallback(huart->hdmarx);
 8002faa:	6ee0      	ldr	r0, [r4, #108]	; 0x6c
 8002fac:	6b83      	ldr	r3, [r0, #56]	; 0x38
 8002fae:	4798      	blx	r3
 8002fb0:	bd38      	pop	{r3, r4, r5, pc}
            HAL_UART_ErrorCallback(huart);
 8002fb2:	4620      	mov	r0, r4
 8002fb4:	f7fe fa98 	bl	80014e8 <HAL_UART_ErrorCallback>
 8002fb8:	bd38      	pop	{r3, r4, r5, pc}
          HAL_UART_ErrorCallback(huart);
 8002fba:	4620      	mov	r0, r4
 8002fbc:	f7fe fa94 	bl	80014e8 <HAL_UART_ErrorCallback>
 8002fc0:	bd38      	pop	{r3, r4, r5, pc}
        HAL_UART_ErrorCallback(huart);
 8002fc2:	4620      	mov	r0, r4
 8002fc4:	f7fe fa90 	bl	80014e8 <HAL_UART_ErrorCallback>
        huart->ErrorCode = HAL_UART_ERROR_NONE;
 8002fc8:	2300      	movs	r3, #0
 8002fca:	6763      	str	r3, [r4, #116]	; 0x74
 8002fcc:	bd38      	pop	{r3, r4, r5, pc}
  if(((isrflags & USART_ISR_WUF) != RESET) && ((cr3its & USART_CR3_WUFIE) != RESET))
 8002fce:	f413 1f80 	tst.w	r3, #1048576	; 0x100000
 8002fd2:	d002      	beq.n	8002fda <HAL_UART_IRQHandler+0x11e>
 8002fd4:	f410 0f80 	tst.w	r0, #4194304	; 0x400000
 8002fd8:	d10a      	bne.n	8002ff0 <HAL_UART_IRQHandler+0x134>
  if(((isrflags & USART_ISR_TXE) != RESET)
 8002fda:	f013 0f80 	tst.w	r3, #128	; 0x80
 8002fde:	d013      	beq.n	8003008 <HAL_UART_IRQHandler+0x14c>
     && ((cr1its & USART_CR1_TXEIE) != RESET))
 8002fe0:	f011 0f80 	tst.w	r1, #128	; 0x80
 8002fe4:	d010      	beq.n	8003008 <HAL_UART_IRQHandler+0x14c>
    if (huart->TxISR != NULL) {huart->TxISR(huart);}
 8002fe6:	6e63      	ldr	r3, [r4, #100]	; 0x64
 8002fe8:	b1a3      	cbz	r3, 8003014 <HAL_UART_IRQHandler+0x158>
 8002fea:	4620      	mov	r0, r4
 8002fec:	4798      	blx	r3
 8002fee:	bd38      	pop	{r3, r4, r5, pc}
    __HAL_UART_CLEAR_FLAG(huart, UART_CLEAR_WUF);
 8002ff0:	f44f 1380 	mov.w	r3, #1048576	; 0x100000
 8002ff4:	6213      	str	r3, [r2, #32]
    huart->gState  = HAL_UART_STATE_READY;
 8002ff6:	2320      	movs	r3, #32
 8002ff8:	f884 3071 	strb.w	r3, [r4, #113]	; 0x71
    huart->RxState = HAL_UART_STATE_READY;
 8002ffc:	f884 3072 	strb.w	r3, [r4, #114]	; 0x72
    HAL_UARTEx_WakeupCallback(huart);
 8003000:	4620      	mov	r0, r4
 8003002:	f000 fb04 	bl	800360e <HAL_UARTEx_WakeupCallback>
    return;
 8003006:	bd38      	pop	{r3, r4, r5, pc}
  if(((isrflags & USART_ISR_TC) != RESET) && ((cr1its & USART_CR1_TCIE) != RESET))
 8003008:	f013 0f40 	tst.w	r3, #64	; 0x40
 800300c:	d002      	beq.n	8003014 <HAL_UART_IRQHandler+0x158>
 800300e:	f011 0f40 	tst.w	r1, #64	; 0x40
 8003012:	d100      	bne.n	8003016 <HAL_UART_IRQHandler+0x15a>
 8003014:	bd38      	pop	{r3, r4, r5, pc}
    UART_EndTransmit_IT(huart);
 8003016:	4620      	mov	r0, r4
 8003018:	f7ff fede 	bl	8002dd8 <UART_EndTransmit_IT>
    return;
 800301c:	e7fa      	b.n	8003014 <HAL_UART_IRQHandler+0x158>
 800301e:	bf00      	nop
 8003020:	08003025 	.word	0x08003025

08003024 <UART_DMAAbortOnError>:
{
 8003024:	b508      	push	{r3, lr}
  UART_HandleTypeDef* huart = (UART_HandleTypeDef*)(hdma->Parent);
 8003026:	6a80      	ldr	r0, [r0, #40]	; 0x28
  huart->RxXferCount = 0U;
 8003028:	2300      	movs	r3, #0
 800302a:	f8a0 305a 	strh.w	r3, [r0, #90]	; 0x5a
  huart->TxXferCount = 0U;
 800302e:	f8a0 3052 	strh.w	r3, [r0, #82]	; 0x52
  HAL_UART_ErrorCallback(huart);
 8003032:	f7fe fa59 	bl	80014e8 <HAL_UART_ErrorCallback>
 8003036:	bd08      	pop	{r3, pc}

08003038 <UART_SetConfig>:
{
 8003038:	e92d 4b78 	stmdb	sp!, {r3, r4, r5, r6, r8, r9, fp, lr}
 800303c:	4604      	mov	r4, r0
  if(UART_INSTANCE_LOWPOWER(huart))
 800303e:	6801      	ldr	r1, [r0, #0]
  tmpreg = (uint32_t)huart->Init.WordLength | huart->Init.Parity | huart->Init.Mode | huart->Init.OverSampling ;
 8003040:	6883      	ldr	r3, [r0, #8]
 8003042:	6902      	ldr	r2, [r0, #16]
 8003044:	4313      	orrs	r3, r2
 8003046:	6942      	ldr	r2, [r0, #20]
 8003048:	4313      	orrs	r3, r2
 800304a:	69c2      	ldr	r2, [r0, #28]
 800304c:	4313      	orrs	r3, r2
  MODIFY_REG(huart->Instance->CR1, USART_CR1_FIELDS, tmpreg);
 800304e:	6808      	ldr	r0, [r1, #0]
 8003050:	4a9b      	ldr	r2, [pc, #620]	; (80032c0 <UART_SetConfig+0x288>)
 8003052:	4002      	ands	r2, r0
 8003054:	4313      	orrs	r3, r2
 8003056:	600b      	str	r3, [r1, #0]
  MODIFY_REG(huart->Instance->CR2, USART_CR2_STOP, huart->Init.StopBits);
 8003058:	6822      	ldr	r2, [r4, #0]
 800305a:	6853      	ldr	r3, [r2, #4]
 800305c:	f423 5340 	bic.w	r3, r3, #12288	; 0x3000
 8003060:	68e1      	ldr	r1, [r4, #12]
 8003062:	430b      	orrs	r3, r1
 8003064:	6053      	str	r3, [r2, #4]
  tmpreg = (uint32_t)huart->Init.HwFlowCtl;
 8003066:	69a3      	ldr	r3, [r4, #24]
  if (!(UART_INSTANCE_LOWPOWER(huart)))
 8003068:	6822      	ldr	r2, [r4, #0]
 800306a:	4996      	ldr	r1, [pc, #600]	; (80032c4 <UART_SetConfig+0x28c>)
 800306c:	428a      	cmp	r2, r1
 800306e:	d001      	beq.n	8003074 <UART_SetConfig+0x3c>
    tmpreg |= huart->Init.OneBitSampling;
 8003070:	6a21      	ldr	r1, [r4, #32]
 8003072:	430b      	orrs	r3, r1
  MODIFY_REG(huart->Instance->CR3, USART_CR3_FIELDS, tmpreg);
 8003074:	6891      	ldr	r1, [r2, #8]
 8003076:	f421 6130 	bic.w	r1, r1, #2816	; 0xb00
 800307a:	430b      	orrs	r3, r1
 800307c:	6093      	str	r3, [r2, #8]
  UART_GETCLOCKSOURCE(huart, clocksource);
 800307e:	6823      	ldr	r3, [r4, #0]
 8003080:	4a91      	ldr	r2, [pc, #580]	; (80032c8 <UART_SetConfig+0x290>)
 8003082:	4293      	cmp	r3, r2
 8003084:	d023      	beq.n	80030ce <UART_SetConfig+0x96>
 8003086:	4a91      	ldr	r2, [pc, #580]	; (80032cc <UART_SetConfig+0x294>)
 8003088:	4293      	cmp	r3, r2
 800308a:	d034      	beq.n	80030f6 <UART_SetConfig+0xbe>
 800308c:	4a90      	ldr	r2, [pc, #576]	; (80032d0 <UART_SetConfig+0x298>)
 800308e:	4293      	cmp	r3, r2
 8003090:	d04a      	beq.n	8003128 <UART_SetConfig+0xf0>
 8003092:	4a90      	ldr	r2, [pc, #576]	; (80032d4 <UART_SetConfig+0x29c>)
 8003094:	4293      	cmp	r3, r2
 8003096:	d05d      	beq.n	8003154 <UART_SetConfig+0x11c>
 8003098:	4a8a      	ldr	r2, [pc, #552]	; (80032c4 <UART_SetConfig+0x28c>)
 800309a:	4293      	cmp	r3, r2
 800309c:	d070      	beq.n	8003180 <UART_SetConfig+0x148>
  UART_ClockSourceTypeDef clocksource = UART_CLOCKSOURCE_UNDEFINED;
 800309e:	2510      	movs	r5, #16
  if(UART_INSTANCE_LOWPOWER(huart))
 80030a0:	4a88      	ldr	r2, [pc, #544]	; (80032c4 <UART_SetConfig+0x28c>)
 80030a2:	4293      	cmp	r3, r2
 80030a4:	f000 808f 	beq.w	80031c6 <UART_SetConfig+0x18e>
  else if (huart->Init.OverSampling == UART_OVERSAMPLING_8)
 80030a8:	69e3      	ldr	r3, [r4, #28]
 80030aa:	f5b3 4f00 	cmp.w	r3, #32768	; 0x8000
 80030ae:	f000 80fd 	beq.w	80032ac <UART_SetConfig+0x274>
    switch (clocksource)
 80030b2:	2d08      	cmp	r5, #8
 80030b4:	f200 819b 	bhi.w	80033ee <UART_SetConfig+0x3b6>
 80030b8:	e8df f015 	tbh	[pc, r5, lsl #1]
 80030bc:	0171015a 	.word	0x0171015a
 80030c0:	0199017b 	.word	0x0199017b
 80030c4:	01990186 	.word	0x01990186
 80030c8:	01990199 	.word	0x01990199
 80030cc:	0190      	.short	0x0190
  UART_GETCLOCKSOURCE(huart, clocksource);
 80030ce:	f502 4258 	add.w	r2, r2, #55296	; 0xd800
 80030d2:	f8d2 2088 	ldr.w	r2, [r2, #136]	; 0x88
 80030d6:	f002 0203 	and.w	r2, r2, #3
 80030da:	2a03      	cmp	r2, #3
 80030dc:	d809      	bhi.n	80030f2 <UART_SetConfig+0xba>
 80030de:	e8df f002 	tbb	[pc, r2]
 80030e2:	0402      	.short	0x0402
 80030e4:	0668      	.short	0x0668
 80030e6:	2501      	movs	r5, #1
 80030e8:	e7da      	b.n	80030a0 <UART_SetConfig+0x68>
 80030ea:	2504      	movs	r5, #4
 80030ec:	e7d8      	b.n	80030a0 <UART_SetConfig+0x68>
 80030ee:	2508      	movs	r5, #8
 80030f0:	e7d6      	b.n	80030a0 <UART_SetConfig+0x68>
 80030f2:	2510      	movs	r5, #16
 80030f4:	e7d4      	b.n	80030a0 <UART_SetConfig+0x68>
 80030f6:	f502 32e6 	add.w	r2, r2, #117760	; 0x1cc00
 80030fa:	f8d2 2088 	ldr.w	r2, [r2, #136]	; 0x88
 80030fe:	f002 020c 	and.w	r2, r2, #12
 8003102:	2a0c      	cmp	r2, #12
 8003104:	d80e      	bhi.n	8003124 <UART_SetConfig+0xec>
 8003106:	e8df f002 	tbb	[pc, r2]
 800310a:	0d07      	.short	0x0d07
 800310c:	0d090d0d 	.word	0x0d090d0d
 8003110:	0d560d0d 	.word	0x0d560d0d
 8003114:	0d0d      	.short	0x0d0d
 8003116:	0b          	.byte	0x0b
 8003117:	00          	.byte	0x00
 8003118:	2500      	movs	r5, #0
 800311a:	e7c1      	b.n	80030a0 <UART_SetConfig+0x68>
 800311c:	2504      	movs	r5, #4
 800311e:	e7bf      	b.n	80030a0 <UART_SetConfig+0x68>
 8003120:	2508      	movs	r5, #8
 8003122:	e7bd      	b.n	80030a0 <UART_SetConfig+0x68>
 8003124:	2510      	movs	r5, #16
 8003126:	e7bb      	b.n	80030a0 <UART_SetConfig+0x68>
 8003128:	f502 32e4 	add.w	r2, r2, #116736	; 0x1c800
 800312c:	f8d2 2088 	ldr.w	r2, [r2, #136]	; 0x88
 8003130:	f002 0230 	and.w	r2, r2, #48	; 0x30
 8003134:	2a10      	cmp	r2, #16
 8003136:	d009      	beq.n	800314c <UART_SetConfig+0x114>
 8003138:	d905      	bls.n	8003146 <UART_SetConfig+0x10e>
 800313a:	2a20      	cmp	r2, #32
 800313c:	d03d      	beq.n	80031ba <UART_SetConfig+0x182>
 800313e:	2a30      	cmp	r2, #48	; 0x30
 8003140:	d106      	bne.n	8003150 <UART_SetConfig+0x118>
 8003142:	2508      	movs	r5, #8
 8003144:	e7ac      	b.n	80030a0 <UART_SetConfig+0x68>
 8003146:	b91a      	cbnz	r2, 8003150 <UART_SetConfig+0x118>
 8003148:	2500      	movs	r5, #0
 800314a:	e7a9      	b.n	80030a0 <UART_SetConfig+0x68>
 800314c:	2504      	movs	r5, #4
 800314e:	e7a7      	b.n	80030a0 <UART_SetConfig+0x68>
 8003150:	2510      	movs	r5, #16
 8003152:	e7a5      	b.n	80030a0 <UART_SetConfig+0x68>
 8003154:	f502 32e2 	add.w	r2, r2, #115712	; 0x1c400
 8003158:	f8d2 2088 	ldr.w	r2, [r2, #136]	; 0x88
 800315c:	f002 02c0 	and.w	r2, r2, #192	; 0xc0
 8003160:	2a40      	cmp	r2, #64	; 0x40
 8003162:	d009      	beq.n	8003178 <UART_SetConfig+0x140>
 8003164:	d905      	bls.n	8003172 <UART_SetConfig+0x13a>
 8003166:	2a80      	cmp	r2, #128	; 0x80
 8003168:	d029      	beq.n	80031be <UART_SetConfig+0x186>
 800316a:	2ac0      	cmp	r2, #192	; 0xc0
 800316c:	d106      	bne.n	800317c <UART_SetConfig+0x144>
 800316e:	2508      	movs	r5, #8
 8003170:	e796      	b.n	80030a0 <UART_SetConfig+0x68>
 8003172:	b91a      	cbnz	r2, 800317c <UART_SetConfig+0x144>
 8003174:	2500      	movs	r5, #0
 8003176:	e793      	b.n	80030a0 <UART_SetConfig+0x68>
 8003178:	2504      	movs	r5, #4
 800317a:	e791      	b.n	80030a0 <UART_SetConfig+0x68>
 800317c:	2510      	movs	r5, #16
 800317e:	e78f      	b.n	80030a0 <UART_SetConfig+0x68>
 8003180:	f502 32c8 	add.w	r2, r2, #102400	; 0x19000
 8003184:	f8d2 2088 	ldr.w	r2, [r2, #136]	; 0x88
 8003188:	f402 6240 	and.w	r2, r2, #3072	; 0xc00
 800318c:	f5b2 6f80 	cmp.w	r2, #1024	; 0x400
 8003190:	d00b      	beq.n	80031aa <UART_SetConfig+0x172>
 8003192:	d907      	bls.n	80031a4 <UART_SetConfig+0x16c>
 8003194:	f5b2 6f00 	cmp.w	r2, #2048	; 0x800
 8003198:	d013      	beq.n	80031c2 <UART_SetConfig+0x18a>
 800319a:	f5b2 6f40 	cmp.w	r2, #3072	; 0xc00
 800319e:	d106      	bne.n	80031ae <UART_SetConfig+0x176>
 80031a0:	2508      	movs	r5, #8
 80031a2:	e77d      	b.n	80030a0 <UART_SetConfig+0x68>
 80031a4:	b91a      	cbnz	r2, 80031ae <UART_SetConfig+0x176>
 80031a6:	2500      	movs	r5, #0
 80031a8:	e77a      	b.n	80030a0 <UART_SetConfig+0x68>
 80031aa:	2504      	movs	r5, #4
 80031ac:	e778      	b.n	80030a0 <UART_SetConfig+0x68>
 80031ae:	2510      	movs	r5, #16
 80031b0:	e776      	b.n	80030a0 <UART_SetConfig+0x68>
 80031b2:	2502      	movs	r5, #2
 80031b4:	e774      	b.n	80030a0 <UART_SetConfig+0x68>
 80031b6:	2502      	movs	r5, #2
 80031b8:	e772      	b.n	80030a0 <UART_SetConfig+0x68>
 80031ba:	2502      	movs	r5, #2
 80031bc:	e770      	b.n	80030a0 <UART_SetConfig+0x68>
 80031be:	2502      	movs	r5, #2
 80031c0:	e76e      	b.n	80030a0 <UART_SetConfig+0x68>
 80031c2:	2502      	movs	r5, #2
 80031c4:	e76c      	b.n	80030a0 <UART_SetConfig+0x68>
    switch (clocksource)
 80031c6:	2d08      	cmp	r5, #8
 80031c8:	d811      	bhi.n	80031ee <UART_SetConfig+0x1b6>
 80031ca:	e8df f005 	tbb	[pc, r5]
 80031ce:	1008      	.short	0x1008
 80031d0:	100c1005 	.word	0x100c1005
 80031d4:	1010      	.short	0x1010
 80031d6:	13          	.byte	0x13
 80031d7:	00          	.byte	0x00
      lpuart_ker_ck_pres = (uint32_t)HSI_VALUE;
 80031d8:	483f      	ldr	r0, [pc, #252]	; (80032d8 <UART_SetConfig+0x2a0>)
  HAL_StatusTypeDef ret               = HAL_OK;
 80031da:	2600      	movs	r6, #0
 80031dc:	e00d      	b.n	80031fa <UART_SetConfig+0x1c2>
      lpuart_ker_ck_pres = HAL_RCC_GetPCLK1Freq();
 80031de:	f7ff f8a3 	bl	8002328 <HAL_RCC_GetPCLK1Freq>
  HAL_StatusTypeDef ret               = HAL_OK;
 80031e2:	2600      	movs	r6, #0
      break;
 80031e4:	e009      	b.n	80031fa <UART_SetConfig+0x1c2>
      lpuart_ker_ck_pres = HAL_RCC_GetSysClockFreq();
 80031e6:	f7fe fc5d 	bl	8001aa4 <HAL_RCC_GetSysClockFreq>
  HAL_StatusTypeDef ret               = HAL_OK;
 80031ea:	2600      	movs	r6, #0
      break;
 80031ec:	e005      	b.n	80031fa <UART_SetConfig+0x1c2>
  uint32_t lpuart_ker_ck_pres         = 0x00000000U;
 80031ee:	2000      	movs	r0, #0
      ret = HAL_ERROR;
 80031f0:	2601      	movs	r6, #1
      break;
 80031f2:	e002      	b.n	80031fa <UART_SetConfig+0x1c2>
      lpuart_ker_ck_pres = (uint32_t)LSE_VALUE;
 80031f4:	f44f 4000 	mov.w	r0, #32768	; 0x8000
  HAL_StatusTypeDef ret               = HAL_OK;
 80031f8:	2600      	movs	r6, #0
    if (lpuart_ker_ck_pres != 0U)
 80031fa:	2800      	cmp	r0, #0
 80031fc:	f000 80c9 	beq.w	8003392 <UART_SetConfig+0x35a>
      if ( (lpuart_ker_ck_pres < (3 * huart->Init.BaudRate) ) ||
 8003200:	6862      	ldr	r2, [r4, #4]
 8003202:	eb02 0342 	add.w	r3, r2, r2, lsl #1
 8003206:	4298      	cmp	r0, r3
 8003208:	f0c0 80f4 	bcc.w	80033f4 <UART_SetConfig+0x3bc>
 800320c:	ebb0 3f02 	cmp.w	r0, r2, lsl #12
 8003210:	f200 80f2 	bhi.w	80033f8 <UART_SetConfig+0x3c0>
        switch (clocksource)
 8003214:	2d08      	cmp	r5, #8
 8003216:	d846      	bhi.n	80032a6 <UART_SetConfig+0x26e>
 8003218:	e8df f005 	tbb	[pc, r5]
 800321c:	451f4505 	.word	0x451f4505
 8003220:	45454529 	.word	0x45454529
 8003224:	3b          	.byte	0x3b
 8003225:	00          	.byte	0x00
          usartdiv = (uint32_t)(UART_DIV_LPUART(HAL_RCC_GetPCLK1Freq(), huart->Init.BaudRate));
 8003226:	f7ff f87f 	bl	8002328 <HAL_RCC_GetPCLK1Freq>
 800322a:	2300      	movs	r3, #0
 800322c:	ea4f 6910 	mov.w	r9, r0, lsr #24
 8003230:	ea4f 2800 	mov.w	r8, r0, lsl #8
 8003234:	6862      	ldr	r2, [r4, #4]
 8003236:	0850      	lsrs	r0, r2, #1
 8003238:	eb18 0b00 	adds.w	fp, r8, r0
 800323c:	f149 0c00 	adc.w	ip, r9, #0
 8003240:	4658      	mov	r0, fp
 8003242:	4661      	mov	r1, ip
 8003244:	f7fc ffc6 	bl	80001d4 <__aeabi_uldivmod>
        if ((usartdiv >= LPUART_BRR_MIN) && (usartdiv <= LPUART_BRR_MAX))
 8003248:	f5a0 7240 	sub.w	r2, r0, #768	; 0x300
 800324c:	4b23      	ldr	r3, [pc, #140]	; (80032dc <UART_SetConfig+0x2a4>)
 800324e:	429a      	cmp	r2, r3
 8003250:	f200 80d4 	bhi.w	80033fc <UART_SetConfig+0x3c4>
          huart->Instance->BRR = usartdiv;
 8003254:	6823      	ldr	r3, [r4, #0]
 8003256:	60d8      	str	r0, [r3, #12]
 8003258:	e09b      	b.n	8003392 <UART_SetConfig+0x35a>
          usartdiv = (uint32_t)(UART_DIV_LPUART(HSI_VALUE, huart->Init.BaudRate));
 800325a:	0855      	lsrs	r5, r2, #1
 800325c:	2300      	movs	r3, #0
 800325e:	4820      	ldr	r0, [pc, #128]	; (80032e0 <UART_SetConfig+0x2a8>)
 8003260:	2100      	movs	r1, #0
 8003262:	1940      	adds	r0, r0, r5
 8003264:	f141 0100 	adc.w	r1, r1, #0
 8003268:	f7fc ffb4 	bl	80001d4 <__aeabi_uldivmod>
          break;
 800326c:	e7ec      	b.n	8003248 <UART_SetConfig+0x210>
          usartdiv = (uint32_t)(UART_DIV_LPUART(HAL_RCC_GetSysClockFreq(), huart->Init.BaudRate));
 800326e:	f7fe fc19 	bl	8001aa4 <HAL_RCC_GetSysClockFreq>
 8003272:	2300      	movs	r3, #0
 8003274:	ea4f 6910 	mov.w	r9, r0, lsr #24
 8003278:	ea4f 2800 	mov.w	r8, r0, lsl #8
 800327c:	6862      	ldr	r2, [r4, #4]
 800327e:	0850      	lsrs	r0, r2, #1
 8003280:	eb18 0b00 	adds.w	fp, r8, r0
 8003284:	f149 0c00 	adc.w	ip, r9, #0
 8003288:	4658      	mov	r0, fp
 800328a:	4661      	mov	r1, ip
 800328c:	f7fc ffa2 	bl	80001d4 <__aeabi_uldivmod>
          break;
 8003290:	e7da      	b.n	8003248 <UART_SetConfig+0x210>
          usartdiv = (uint32_t)(UART_DIV_LPUART(LSE_VALUE, huart->Init.BaudRate));
 8003292:	0850      	lsrs	r0, r2, #1
 8003294:	2100      	movs	r1, #0
 8003296:	2300      	movs	r3, #0
 8003298:	f510 0000 	adds.w	r0, r0, #8388608	; 0x800000
 800329c:	f141 0100 	adc.w	r1, r1, #0
 80032a0:	f7fc ff98 	bl	80001d4 <__aeabi_uldivmod>
          break;
 80032a4:	e7d0      	b.n	8003248 <UART_SetConfig+0x210>
          ret = HAL_ERROR;
 80032a6:	2601      	movs	r6, #1
  uint32_t usartdiv                   = 0x00000000U;
 80032a8:	2000      	movs	r0, #0
 80032aa:	e7cd      	b.n	8003248 <UART_SetConfig+0x210>
    switch (clocksource)
 80032ac:	2d08      	cmp	r5, #8
 80032ae:	d85c      	bhi.n	800336a <UART_SetConfig+0x332>
 80032b0:	e8df f005 	tbb	[pc, r5]
 80032b4:	5b3c3118 	.word	0x5b3c3118
 80032b8:	5b5b5b47 	.word	0x5b5b5b47
 80032bc:	52          	.byte	0x52
 80032bd:	00          	.byte	0x00
 80032be:	bf00      	nop
 80032c0:	efff69f3 	.word	0xefff69f3
 80032c4:	40008000 	.word	0x40008000
 80032c8:	40013800 	.word	0x40013800
 80032cc:	40004400 	.word	0x40004400
 80032d0:	40004800 	.word	0x40004800
 80032d4:	40004c00 	.word	0x40004c00
 80032d8:	00f42400 	.word	0x00f42400
 80032dc:	000ffcff 	.word	0x000ffcff
 80032e0:	f4240000 	.word	0xf4240000
      usartdiv = (uint16_t)(UART_DIV_SAMPLING8(HAL_RCC_GetPCLK1Freq(), huart->Init.BaudRate));
 80032e4:	f7ff f820 	bl	8002328 <HAL_RCC_GetPCLK1Freq>
 80032e8:	6862      	ldr	r2, [r4, #4]
 80032ea:	0853      	lsrs	r3, r2, #1
 80032ec:	eb03 0340 	add.w	r3, r3, r0, lsl #1
 80032f0:	fbb3 f3f2 	udiv	r3, r3, r2
 80032f4:	b29b      	uxth	r3, r3
  HAL_StatusTypeDef ret               = HAL_OK;
 80032f6:	2600      	movs	r6, #0
    if ((usartdiv >= UART_BRR_MIN) && (usartdiv <= UART_BRR_MAX))
 80032f8:	f1a3 0110 	sub.w	r1, r3, #16
 80032fc:	f64f 72ef 	movw	r2, #65519	; 0xffef
 8003300:	4291      	cmp	r1, r2
 8003302:	d87d      	bhi.n	8003400 <UART_SetConfig+0x3c8>
      brrtemp = usartdiv & 0xFFF0U;
 8003304:	b29a      	uxth	r2, r3
 8003306:	f022 020f 	bic.w	r2, r2, #15
      brrtemp |= (uint16_t)((usartdiv & (uint16_t)0x000FU) >> 1U);
 800330a:	f3c3 0342 	ubfx	r3, r3, #1, #3
 800330e:	4313      	orrs	r3, r2
      huart->Instance->BRR = brrtemp;
 8003310:	6822      	ldr	r2, [r4, #0]
 8003312:	60d3      	str	r3, [r2, #12]
 8003314:	e03d      	b.n	8003392 <UART_SetConfig+0x35a>
      usartdiv = (uint16_t)(UART_DIV_SAMPLING8(HAL_RCC_GetPCLK2Freq(), huart->Init.BaudRate));
 8003316:	f7ff f817 	bl	8002348 <HAL_RCC_GetPCLK2Freq>
 800331a:	6862      	ldr	r2, [r4, #4]
 800331c:	0853      	lsrs	r3, r2, #1
 800331e:	eb03 0340 	add.w	r3, r3, r0, lsl #1
 8003322:	fbb3 f3f2 	udiv	r3, r3, r2
 8003326:	b29b      	uxth	r3, r3
  HAL_StatusTypeDef ret               = HAL_OK;
 8003328:	2600      	movs	r6, #0
      break;
 800332a:	e7e5      	b.n	80032f8 <UART_SetConfig+0x2c0>
      usartdiv = (uint16_t)(UART_DIV_SAMPLING8(HSI_VALUE, huart->Init.BaudRate));
 800332c:	6862      	ldr	r2, [r4, #4]
 800332e:	0853      	lsrs	r3, r2, #1
 8003330:	f103 73f4 	add.w	r3, r3, #31981568	; 0x1e80000
 8003334:	f503 4390 	add.w	r3, r3, #18432	; 0x4800
 8003338:	fbb3 f3f2 	udiv	r3, r3, r2
 800333c:	b29b      	uxth	r3, r3
  HAL_StatusTypeDef ret               = HAL_OK;
 800333e:	2600      	movs	r6, #0
      break;
 8003340:	e7da      	b.n	80032f8 <UART_SetConfig+0x2c0>
      usartdiv = (uint16_t)(UART_DIV_SAMPLING8(HAL_RCC_GetSysClockFreq(), huart->Init.BaudRate));
 8003342:	f7fe fbaf 	bl	8001aa4 <HAL_RCC_GetSysClockFreq>
 8003346:	6862      	ldr	r2, [r4, #4]
 8003348:	0853      	lsrs	r3, r2, #1
 800334a:	eb03 0340 	add.w	r3, r3, r0, lsl #1
 800334e:	fbb3 f3f2 	udiv	r3, r3, r2
 8003352:	b29b      	uxth	r3, r3
  HAL_StatusTypeDef ret               = HAL_OK;
 8003354:	2600      	movs	r6, #0
      break;
 8003356:	e7cf      	b.n	80032f8 <UART_SetConfig+0x2c0>
      usartdiv = (uint16_t)(UART_DIV_SAMPLING8(LSE_VALUE, huart->Init.BaudRate));
 8003358:	6862      	ldr	r2, [r4, #4]
 800335a:	0853      	lsrs	r3, r2, #1
 800335c:	f503 3380 	add.w	r3, r3, #65536	; 0x10000
 8003360:	fbb3 f3f2 	udiv	r3, r3, r2
 8003364:	b29b      	uxth	r3, r3
  HAL_StatusTypeDef ret               = HAL_OK;
 8003366:	2600      	movs	r6, #0
      break;
 8003368:	e7c6      	b.n	80032f8 <UART_SetConfig+0x2c0>
      ret = HAL_ERROR;
 800336a:	2601      	movs	r6, #1
  uint32_t usartdiv                   = 0x00000000U;
 800336c:	2300      	movs	r3, #0
 800336e:	e7c3      	b.n	80032f8 <UART_SetConfig+0x2c0>
      usartdiv = (uint16_t)(UART_DIV_SAMPLING16(HAL_RCC_GetPCLK1Freq(), huart->Init.BaudRate));
 8003370:	f7fe ffda 	bl	8002328 <HAL_RCC_GetPCLK1Freq>
 8003374:	6863      	ldr	r3, [r4, #4]
 8003376:	eb00 0053 	add.w	r0, r0, r3, lsr #1
 800337a:	fbb0 f0f3 	udiv	r0, r0, r3
 800337e:	b280      	uxth	r0, r0
  HAL_StatusTypeDef ret               = HAL_OK;
 8003380:	2600      	movs	r6, #0
    if ((usartdiv >= UART_BRR_MIN) && (usartdiv <= UART_BRR_MAX))
 8003382:	f1a0 0210 	sub.w	r2, r0, #16
 8003386:	f64f 73ef 	movw	r3, #65519	; 0xffef
 800338a:	429a      	cmp	r2, r3
 800338c:	d83a      	bhi.n	8003404 <UART_SetConfig+0x3cc>
      huart->Instance->BRR = usartdiv;
 800338e:	6823      	ldr	r3, [r4, #0]
 8003390:	60d8      	str	r0, [r3, #12]
  huart->RxISR = NULL;
 8003392:	2300      	movs	r3, #0
 8003394:	6623      	str	r3, [r4, #96]	; 0x60
  huart->TxISR = NULL;
 8003396:	6663      	str	r3, [r4, #100]	; 0x64
}
 8003398:	4630      	mov	r0, r6
 800339a:	e8bd 8b78 	ldmia.w	sp!, {r3, r4, r5, r6, r8, r9, fp, pc}
      usartdiv = (uint16_t)(UART_DIV_SAMPLING16(HAL_RCC_GetPCLK2Freq(), huart->Init.BaudRate));
 800339e:	f7fe ffd3 	bl	8002348 <HAL_RCC_GetPCLK2Freq>
 80033a2:	6863      	ldr	r3, [r4, #4]
 80033a4:	eb00 0053 	add.w	r0, r0, r3, lsr #1
 80033a8:	fbb0 f0f3 	udiv	r0, r0, r3
 80033ac:	b280      	uxth	r0, r0
  HAL_StatusTypeDef ret               = HAL_OK;
 80033ae:	2600      	movs	r6, #0
      break;
 80033b0:	e7e7      	b.n	8003382 <UART_SetConfig+0x34a>
      usartdiv = (uint16_t)(UART_DIV_SAMPLING16(HSI_VALUE, huart->Init.BaudRate));
 80033b2:	6863      	ldr	r3, [r4, #4]
 80033b4:	0858      	lsrs	r0, r3, #1
 80033b6:	f500 0074 	add.w	r0, r0, #15990784	; 0xf40000
 80033ba:	f500 5010 	add.w	r0, r0, #9216	; 0x2400
 80033be:	fbb0 f0f3 	udiv	r0, r0, r3
 80033c2:	b280      	uxth	r0, r0
  HAL_StatusTypeDef ret               = HAL_OK;
 80033c4:	2600      	movs	r6, #0
      break;
 80033c6:	e7dc      	b.n	8003382 <UART_SetConfig+0x34a>
      usartdiv = (uint16_t)(UART_DIV_SAMPLING16(HAL_RCC_GetSysClockFreq(), huart->Init.BaudRate));
 80033c8:	f7fe fb6c 	bl	8001aa4 <HAL_RCC_GetSysClockFreq>
 80033cc:	6863      	ldr	r3, [r4, #4]
 80033ce:	eb00 0053 	add.w	r0, r0, r3, lsr #1
 80033d2:	fbb0 f0f3 	udiv	r0, r0, r3
 80033d6:	b280      	uxth	r0, r0
  HAL_StatusTypeDef ret               = HAL_OK;
 80033d8:	2600      	movs	r6, #0
      break;
 80033da:	e7d2      	b.n	8003382 <UART_SetConfig+0x34a>
      usartdiv = (uint16_t)(UART_DIV_SAMPLING16(LSE_VALUE, huart->Init.BaudRate));
 80033dc:	6863      	ldr	r3, [r4, #4]
 80033de:	0858      	lsrs	r0, r3, #1
 80033e0:	f500 4000 	add.w	r0, r0, #32768	; 0x8000
 80033e4:	fbb0 f0f3 	udiv	r0, r0, r3
 80033e8:	b280      	uxth	r0, r0
  HAL_StatusTypeDef ret               = HAL_OK;
 80033ea:	2600      	movs	r6, #0
      break;
 80033ec:	e7c9      	b.n	8003382 <UART_SetConfig+0x34a>
      ret = HAL_ERROR;
 80033ee:	2601      	movs	r6, #1
  uint32_t usartdiv                   = 0x00000000U;
 80033f0:	2000      	movs	r0, #0
 80033f2:	e7c6      	b.n	8003382 <UART_SetConfig+0x34a>
        ret = HAL_ERROR;
 80033f4:	2601      	movs	r6, #1
 80033f6:	e7cc      	b.n	8003392 <UART_SetConfig+0x35a>
 80033f8:	2601      	movs	r6, #1
 80033fa:	e7ca      	b.n	8003392 <UART_SetConfig+0x35a>
          ret = HAL_ERROR;
 80033fc:	2601      	movs	r6, #1
 80033fe:	e7c8      	b.n	8003392 <UART_SetConfig+0x35a>
      ret = HAL_ERROR;
 8003400:	2601      	movs	r6, #1
 8003402:	e7c6      	b.n	8003392 <UART_SetConfig+0x35a>
      ret = HAL_ERROR;
 8003404:	2601      	movs	r6, #1
 8003406:	e7c4      	b.n	8003392 <UART_SetConfig+0x35a>

08003408 <UART_AdvFeatureConfig>:
  if(HAL_IS_BIT_SET(huart->AdvancedInit.AdvFeatureInit, UART_ADVFEATURE_TXINVERT_INIT))
 8003408:	6a43      	ldr	r3, [r0, #36]	; 0x24
 800340a:	f013 0f01 	tst.w	r3, #1
 800340e:	d006      	beq.n	800341e <UART_AdvFeatureConfig+0x16>
    MODIFY_REG(huart->Instance->CR2, USART_CR2_TXINV, huart->AdvancedInit.TxPinLevelInvert);
 8003410:	6802      	ldr	r2, [r0, #0]
 8003412:	6853      	ldr	r3, [r2, #4]
 8003414:	f423 3300 	bic.w	r3, r3, #131072	; 0x20000
 8003418:	6a81      	ldr	r1, [r0, #40]	; 0x28
 800341a:	430b      	orrs	r3, r1
 800341c:	6053      	str	r3, [r2, #4]
  if(HAL_IS_BIT_SET(huart->AdvancedInit.AdvFeatureInit, UART_ADVFEATURE_RXINVERT_INIT))
 800341e:	6a43      	ldr	r3, [r0, #36]	; 0x24
 8003420:	f013 0f02 	tst.w	r3, #2
 8003424:	d006      	beq.n	8003434 <UART_AdvFeatureConfig+0x2c>
    MODIFY_REG(huart->Instance->CR2, USART_CR2_RXINV, huart->AdvancedInit.RxPinLevelInvert);
 8003426:	6802      	ldr	r2, [r0, #0]
 8003428:	6853      	ldr	r3, [r2, #4]
 800342a:	f423 3380 	bic.w	r3, r3, #65536	; 0x10000
 800342e:	6ac1      	ldr	r1, [r0, #44]	; 0x2c
 8003430:	430b      	orrs	r3, r1
 8003432:	6053      	str	r3, [r2, #4]
  if(HAL_IS_BIT_SET(huart->AdvancedInit.AdvFeatureInit, UART_ADVFEATURE_DATAINVERT_INIT))
 8003434:	6a43      	ldr	r3, [r0, #36]	; 0x24
 8003436:	f013 0f04 	tst.w	r3, #4
 800343a:	d006      	beq.n	800344a <UART_AdvFeatureConfig+0x42>
    MODIFY_REG(huart->Instance->CR2, USART_CR2_DATAINV, huart->AdvancedInit.DataInvert);
 800343c:	6802      	ldr	r2, [r0, #0]
 800343e:	6853      	ldr	r3, [r2, #4]
 8003440:	f423 2380 	bic.w	r3, r3, #262144	; 0x40000
 8003444:	6b01      	ldr	r1, [r0, #48]	; 0x30
 8003446:	430b      	orrs	r3, r1
 8003448:	6053      	str	r3, [r2, #4]
  if(HAL_IS_BIT_SET(huart->AdvancedInit.AdvFeatureInit, UART_ADVFEATURE_SWAP_INIT))
 800344a:	6a43      	ldr	r3, [r0, #36]	; 0x24
 800344c:	f013 0f08 	tst.w	r3, #8
 8003450:	d006      	beq.n	8003460 <UART_AdvFeatureConfig+0x58>
    MODIFY_REG(huart->Instance->CR2, USART_CR2_SWAP, huart->AdvancedInit.Swap);
 8003452:	6802      	ldr	r2, [r0, #0]
 8003454:	6853      	ldr	r3, [r2, #4]
 8003456:	f423 4300 	bic.w	r3, r3, #32768	; 0x8000
 800345a:	6b41      	ldr	r1, [r0, #52]	; 0x34
 800345c:	430b      	orrs	r3, r1
 800345e:	6053      	str	r3, [r2, #4]
  if(HAL_IS_BIT_SET(huart->AdvancedInit.AdvFeatureInit, UART_ADVFEATURE_RXOVERRUNDISABLE_INIT))
 8003460:	6a43      	ldr	r3, [r0, #36]	; 0x24
 8003462:	f013 0f10 	tst.w	r3, #16
 8003466:	d006      	beq.n	8003476 <UART_AdvFeatureConfig+0x6e>
    MODIFY_REG(huart->Instance->CR3, USART_CR3_OVRDIS, huart->AdvancedInit.OverrunDisable);
 8003468:	6802      	ldr	r2, [r0, #0]
 800346a:	6893      	ldr	r3, [r2, #8]
 800346c:	f423 5380 	bic.w	r3, r3, #4096	; 0x1000
 8003470:	6b81      	ldr	r1, [r0, #56]	; 0x38
 8003472:	430b      	orrs	r3, r1
 8003474:	6093      	str	r3, [r2, #8]
  if(HAL_IS_BIT_SET(huart->AdvancedInit.AdvFeatureInit, UART_ADVFEATURE_DMADISABLEONERROR_INIT))
 8003476:	6a43      	ldr	r3, [r0, #36]	; 0x24
 8003478:	f013 0f20 	tst.w	r3, #32
 800347c:	d006      	beq.n	800348c <UART_AdvFeatureConfig+0x84>
    MODIFY_REG(huart->Instance->CR3, USART_CR3_DDRE, huart->AdvancedInit.DMADisableonRxError);
 800347e:	6802      	ldr	r2, [r0, #0]
 8003480:	6893      	ldr	r3, [r2, #8]
 8003482:	f423 5300 	bic.w	r3, r3, #8192	; 0x2000
 8003486:	6bc1      	ldr	r1, [r0, #60]	; 0x3c
 8003488:	430b      	orrs	r3, r1
 800348a:	6093      	str	r3, [r2, #8]
  if(HAL_IS_BIT_SET(huart->AdvancedInit.AdvFeatureInit, UART_ADVFEATURE_AUTOBAUDRATE_INIT))
 800348c:	6a43      	ldr	r3, [r0, #36]	; 0x24
 800348e:	f013 0f40 	tst.w	r3, #64	; 0x40
 8003492:	d00a      	beq.n	80034aa <UART_AdvFeatureConfig+0xa2>
    MODIFY_REG(huart->Instance->CR2, USART_CR2_ABREN, huart->AdvancedInit.AutoBaudRateEnable);
 8003494:	6802      	ldr	r2, [r0, #0]
 8003496:	6853      	ldr	r3, [r2, #4]
 8003498:	f423 1380 	bic.w	r3, r3, #1048576	; 0x100000
 800349c:	6c01      	ldr	r1, [r0, #64]	; 0x40
 800349e:	430b      	orrs	r3, r1
 80034a0:	6053      	str	r3, [r2, #4]
    if(huart->AdvancedInit.AutoBaudRateEnable == UART_ADVFEATURE_AUTOBAUDRATE_ENABLE)
 80034a2:	6c03      	ldr	r3, [r0, #64]	; 0x40
 80034a4:	f5b3 1f80 	cmp.w	r3, #1048576	; 0x100000
 80034a8:	d00b      	beq.n	80034c2 <UART_AdvFeatureConfig+0xba>
  if(HAL_IS_BIT_SET(huart->AdvancedInit.AdvFeatureInit, UART_ADVFEATURE_MSBFIRST_INIT))
 80034aa:	6a43      	ldr	r3, [r0, #36]	; 0x24
 80034ac:	f013 0f80 	tst.w	r3, #128	; 0x80
 80034b0:	d006      	beq.n	80034c0 <UART_AdvFeatureConfig+0xb8>
    MODIFY_REG(huart->Instance->CR2, USART_CR2_MSBFIRST, huart->AdvancedInit.MSBFirst);
 80034b2:	6802      	ldr	r2, [r0, #0]
 80034b4:	6853      	ldr	r3, [r2, #4]
 80034b6:	f423 2300 	bic.w	r3, r3, #524288	; 0x80000
 80034ba:	6c81      	ldr	r1, [r0, #72]	; 0x48
 80034bc:	430b      	orrs	r3, r1
 80034be:	6053      	str	r3, [r2, #4]
 80034c0:	4770      	bx	lr
      MODIFY_REG(huart->Instance->CR2, USART_CR2_ABRMODE, huart->AdvancedInit.AutoBaudRateMode);
 80034c2:	6802      	ldr	r2, [r0, #0]
 80034c4:	6853      	ldr	r3, [r2, #4]
 80034c6:	f423 03c0 	bic.w	r3, r3, #6291456	; 0x600000
 80034ca:	6c41      	ldr	r1, [r0, #68]	; 0x44
 80034cc:	430b      	orrs	r3, r1
 80034ce:	6053      	str	r3, [r2, #4]
 80034d0:	e7eb      	b.n	80034aa <UART_AdvFeatureConfig+0xa2>

080034d2 <UART_WaitOnFlagUntilTimeout>:
{
 80034d2:	e92d 41f0 	stmdb	sp!, {r4, r5, r6, r7, r8, lr}
 80034d6:	4605      	mov	r5, r0
 80034d8:	460f      	mov	r7, r1
 80034da:	4616      	mov	r6, r2
 80034dc:	4698      	mov	r8, r3
 80034de:	9c06      	ldr	r4, [sp, #24]
  while((__HAL_UART_GET_FLAG(huart, Flag) ? SET : RESET) == Status)
 80034e0:	682b      	ldr	r3, [r5, #0]
 80034e2:	69db      	ldr	r3, [r3, #28]
 80034e4:	ea37 0303 	bics.w	r3, r7, r3
 80034e8:	bf0c      	ite	eq
 80034ea:	2301      	moveq	r3, #1
 80034ec:	2300      	movne	r3, #0
 80034ee:	42b3      	cmp	r3, r6
 80034f0:	d11e      	bne.n	8003530 <UART_WaitOnFlagUntilTimeout+0x5e>
    if(Timeout != HAL_MAX_DELAY)
 80034f2:	f1b4 3fff 	cmp.w	r4, #4294967295
 80034f6:	d0f3      	beq.n	80034e0 <UART_WaitOnFlagUntilTimeout+0xe>
      if((Timeout == 0U) || ((HAL_GetTick()-Tickstart) > Timeout))
 80034f8:	b12c      	cbz	r4, 8003506 <UART_WaitOnFlagUntilTimeout+0x34>
 80034fa:	f7fe f8bf 	bl	800167c <HAL_GetTick>
 80034fe:	eba0 0008 	sub.w	r0, r0, r8
 8003502:	4284      	cmp	r4, r0
 8003504:	d2ec      	bcs.n	80034e0 <UART_WaitOnFlagUntilTimeout+0xe>
        CLEAR_BIT(huart->Instance->CR1, (USART_CR1_RXNEIE | USART_CR1_PEIE | USART_CR1_TXEIE));
 8003506:	682a      	ldr	r2, [r5, #0]
 8003508:	6813      	ldr	r3, [r2, #0]
 800350a:	f423 73d0 	bic.w	r3, r3, #416	; 0x1a0
 800350e:	6013      	str	r3, [r2, #0]
        CLEAR_BIT(huart->Instance->CR3, USART_CR3_EIE);
 8003510:	682a      	ldr	r2, [r5, #0]
 8003512:	6893      	ldr	r3, [r2, #8]
 8003514:	f023 0301 	bic.w	r3, r3, #1
 8003518:	6093      	str	r3, [r2, #8]
        huart->gState = HAL_UART_STATE_READY;
 800351a:	2320      	movs	r3, #32
 800351c:	f885 3071 	strb.w	r3, [r5, #113]	; 0x71
        huart->RxState = HAL_UART_STATE_READY;
 8003520:	f885 3072 	strb.w	r3, [r5, #114]	; 0x72
        __HAL_UNLOCK(huart);
 8003524:	2300      	movs	r3, #0
 8003526:	f885 3070 	strb.w	r3, [r5, #112]	; 0x70
        return HAL_TIMEOUT;
 800352a:	2003      	movs	r0, #3
 800352c:	e8bd 81f0 	ldmia.w	sp!, {r4, r5, r6, r7, r8, pc}
  return HAL_OK;
 8003530:	2000      	movs	r0, #0
}
 8003532:	e8bd 81f0 	ldmia.w	sp!, {r4, r5, r6, r7, r8, pc}

08003536 <UART_CheckIdleState>:
{
 8003536:	b530      	push	{r4, r5, lr}
 8003538:	b083      	sub	sp, #12
 800353a:	4604      	mov	r4, r0
  huart->ErrorCode = HAL_UART_ERROR_NONE;
 800353c:	2300      	movs	r3, #0
 800353e:	6743      	str	r3, [r0, #116]	; 0x74
  tickstart = HAL_GetTick();
 8003540:	f7fe f89c 	bl	800167c <HAL_GetTick>
 8003544:	4605      	mov	r5, r0
  if((huart->Instance->CR1 & USART_CR1_TE) == USART_CR1_TE)
 8003546:	6823      	ldr	r3, [r4, #0]
 8003548:	681b      	ldr	r3, [r3, #0]
 800354a:	f013 0f08 	tst.w	r3, #8
 800354e:	d10e      	bne.n	800356e <UART_CheckIdleState+0x38>
  if((huart->Instance->CR1 & USART_CR1_RE) == USART_CR1_RE)
 8003550:	6823      	ldr	r3, [r4, #0]
 8003552:	681b      	ldr	r3, [r3, #0]
 8003554:	f013 0f04 	tst.w	r3, #4
 8003558:	d117      	bne.n	800358a <UART_CheckIdleState+0x54>
  huart->gState= HAL_UART_STATE_READY;
 800355a:	2320      	movs	r3, #32
 800355c:	f884 3071 	strb.w	r3, [r4, #113]	; 0x71
  huart->RxState= HAL_UART_STATE_READY;
 8003560:	f884 3072 	strb.w	r3, [r4, #114]	; 0x72
  __HAL_UNLOCK(huart);
 8003564:	2000      	movs	r0, #0
 8003566:	f884 0070 	strb.w	r0, [r4, #112]	; 0x70
}
 800356a:	b003      	add	sp, #12
 800356c:	bd30      	pop	{r4, r5, pc}
    if(UART_WaitOnFlagUntilTimeout(huart, USART_ISR_TEACK, RESET, tickstart, HAL_UART_TIMEOUT_VALUE) != HAL_OK)
 800356e:	f06f 437e 	mvn.w	r3, #4261412864	; 0xfe000000
 8003572:	9300      	str	r3, [sp, #0]
 8003574:	4603      	mov	r3, r0
 8003576:	2200      	movs	r2, #0
 8003578:	f44f 1100 	mov.w	r1, #2097152	; 0x200000
 800357c:	4620      	mov	r0, r4
 800357e:	f7ff ffa8 	bl	80034d2 <UART_WaitOnFlagUntilTimeout>
 8003582:	2800      	cmp	r0, #0
 8003584:	d0e4      	beq.n	8003550 <UART_CheckIdleState+0x1a>
      return HAL_TIMEOUT;
 8003586:	2003      	movs	r0, #3
 8003588:	e7ef      	b.n	800356a <UART_CheckIdleState+0x34>
    if(UART_WaitOnFlagUntilTimeout(huart, USART_ISR_REACK, RESET, tickstart, HAL_UART_TIMEOUT_VALUE) != HAL_OK)
 800358a:	f06f 437e 	mvn.w	r3, #4261412864	; 0xfe000000
 800358e:	9300      	str	r3, [sp, #0]
 8003590:	462b      	mov	r3, r5
 8003592:	2200      	movs	r2, #0
 8003594:	f44f 0180 	mov.w	r1, #4194304	; 0x400000
 8003598:	4620      	mov	r0, r4
 800359a:	f7ff ff9a 	bl	80034d2 <UART_WaitOnFlagUntilTimeout>
 800359e:	2800      	cmp	r0, #0
 80035a0:	d0db      	beq.n	800355a <UART_CheckIdleState+0x24>
      return HAL_TIMEOUT;
 80035a2:	2003      	movs	r0, #3
 80035a4:	e7e1      	b.n	800356a <UART_CheckIdleState+0x34>

080035a6 <HAL_UART_Init>:
  if(huart == NULL)
 80035a6:	b378      	cbz	r0, 8003608 <HAL_UART_Init+0x62>
{
 80035a8:	b510      	push	{r4, lr}
 80035aa:	4604      	mov	r4, r0
  if(huart->gState == HAL_UART_STATE_RESET)
 80035ac:	f890 3071 	ldrb.w	r3, [r0, #113]	; 0x71
 80035b0:	b30b      	cbz	r3, 80035f6 <HAL_UART_Init+0x50>
  huart->gState = HAL_UART_STATE_BUSY;
 80035b2:	2324      	movs	r3, #36	; 0x24
 80035b4:	f884 3071 	strb.w	r3, [r4, #113]	; 0x71
  __HAL_UART_DISABLE(huart);
 80035b8:	6822      	ldr	r2, [r4, #0]
 80035ba:	6813      	ldr	r3, [r2, #0]
 80035bc:	f023 0301 	bic.w	r3, r3, #1
 80035c0:	6013      	str	r3, [r2, #0]
  if (UART_SetConfig(huart) == HAL_ERROR)
 80035c2:	4620      	mov	r0, r4
 80035c4:	f7ff fd38 	bl	8003038 <UART_SetConfig>
 80035c8:	2801      	cmp	r0, #1
 80035ca:	d01f      	beq.n	800360c <HAL_UART_Init+0x66>
  if (huart->AdvancedInit.AdvFeatureInit != UART_ADVFEATURE_NO_INIT)
 80035cc:	6a63      	ldr	r3, [r4, #36]	; 0x24
 80035ce:	b9bb      	cbnz	r3, 8003600 <HAL_UART_Init+0x5a>
  CLEAR_BIT(huart->Instance->CR2, (USART_CR2_LINEN | USART_CR2_CLKEN));
 80035d0:	6822      	ldr	r2, [r4, #0]
 80035d2:	6853      	ldr	r3, [r2, #4]
 80035d4:	f423 4390 	bic.w	r3, r3, #18432	; 0x4800
 80035d8:	6053      	str	r3, [r2, #4]
  CLEAR_BIT(huart->Instance->CR3, (USART_CR3_SCEN | USART_CR3_HDSEL | USART_CR3_IREN));
 80035da:	6822      	ldr	r2, [r4, #0]
 80035dc:	6893      	ldr	r3, [r2, #8]
 80035de:	f023 032a 	bic.w	r3, r3, #42	; 0x2a
 80035e2:	6093      	str	r3, [r2, #8]
  __HAL_UART_ENABLE(huart);
 80035e4:	6822      	ldr	r2, [r4, #0]
 80035e6:	6813      	ldr	r3, [r2, #0]
 80035e8:	f043 0301 	orr.w	r3, r3, #1
 80035ec:	6013      	str	r3, [r2, #0]
  return (UART_CheckIdleState(huart));
 80035ee:	4620      	mov	r0, r4
 80035f0:	f7ff ffa1 	bl	8003536 <UART_CheckIdleState>
 80035f4:	bd10      	pop	{r4, pc}
    huart->Lock = HAL_UNLOCKED;
 80035f6:	f880 3070 	strb.w	r3, [r0, #112]	; 0x70
    HAL_UART_MspInit(huart);
 80035fa:	f7fd fe9f 	bl	800133c <HAL_UART_MspInit>
 80035fe:	e7d8      	b.n	80035b2 <HAL_UART_Init+0xc>
    UART_AdvFeatureConfig(huart);
 8003600:	4620      	mov	r0, r4
 8003602:	f7ff ff01 	bl	8003408 <UART_AdvFeatureConfig>
 8003606:	e7e3      	b.n	80035d0 <HAL_UART_Init+0x2a>
    return HAL_ERROR;
 8003608:	2001      	movs	r0, #1
 800360a:	4770      	bx	lr
}
 800360c:	bd10      	pop	{r4, pc}

0800360e <HAL_UARTEx_WakeupCallback>:
  * @brief UART wakeup from Stop mode callback.
  * @param huart UART handle.
  * @retval None
  */
 __weak void HAL_UARTEx_WakeupCallback(UART_HandleTypeDef *huart)
{
 800360e:	4770      	bx	lr

08003610 <__libc_init_array>:
 8003610:	b570      	push	{r4, r5, r6, lr}
 8003612:	4e0d      	ldr	r6, [pc, #52]	; (8003648 <__libc_init_array+0x38>)
 8003614:	4c0d      	ldr	r4, [pc, #52]	; (800364c <__libc_init_array+0x3c>)
 8003616:	1ba4      	subs	r4, r4, r6
 8003618:	10a4      	asrs	r4, r4, #2
 800361a:	2500      	movs	r5, #0
 800361c:	42a5      	cmp	r5, r4
 800361e:	d109      	bne.n	8003634 <__libc_init_array+0x24>
 8003620:	4e0b      	ldr	r6, [pc, #44]	; (8003650 <__libc_init_array+0x40>)
 8003622:	4c0c      	ldr	r4, [pc, #48]	; (8003654 <__libc_init_array+0x44>)
 8003624:	f000 f818 	bl	8003658 <_init>
 8003628:	1ba4      	subs	r4, r4, r6
 800362a:	10a4      	asrs	r4, r4, #2
 800362c:	2500      	movs	r5, #0
 800362e:	42a5      	cmp	r5, r4
 8003630:	d105      	bne.n	800363e <__libc_init_array+0x2e>
 8003632:	bd70      	pop	{r4, r5, r6, pc}
 8003634:	f856 3025 	ldr.w	r3, [r6, r5, lsl #2]
 8003638:	4798      	blx	r3
 800363a:	3501      	adds	r5, #1
 800363c:	e7ee      	b.n	800361c <__libc_init_array+0xc>
 800363e:	f856 3025 	ldr.w	r3, [r6, r5, lsl #2]
 8003642:	4798      	blx	r3
 8003644:	3501      	adds	r5, #1
 8003646:	e7f2      	b.n	800362e <__libc_init_array+0x1e>
 8003648:	0800394c 	.word	0x0800394c
 800364c:	0800394c 	.word	0x0800394c
 8003650:	0800394c 	.word	0x0800394c
 8003654:	08003950 	.word	0x08003950

08003658 <_init>:
 8003658:	b5f8      	push	{r3, r4, r5, r6, r7, lr}
 800365a:	bf00      	nop
 800365c:	bcf8      	pop	{r3, r4, r5, r6, r7}
 800365e:	bc08      	pop	{r3}
 8003660:	469e      	mov	lr, r3
 8003662:	4770      	bx	lr

08003664 <_fini>:
 8003664:	b5f8      	push	{r3, r4, r5, r6, r7, lr}
 8003666:	bf00      	nop
 8003668:	bcf8      	pop	{r3, r4, r5, r6, r7}
 800366a:	bc08      	pop	{r3}
 800366c:	469e      	mov	lr, r3
 800366e:	4770      	bx	lr
